Certificate:
    Data:
        Version: 3 (0x2)
        Serial Number: 4096 (0x1000)
    Signature Algorithm: sha256WithRSAEncryption
        Issuer: C=SE, ST=Intermediate, O=Intermediate, OU=Intermediate, CN=Intermediate
        Validity
            Not Before: Oct  4 11:01:26 2018 GMT
            Not After : Oct  1 11:01:26 2028 GMT
        Subject: C=SE, ST=EvilCA, L=EvilCA, O=EvilCA, OU=EvilCA, CN=EvilCA
        Subject Public Key Info:
            Public Key Algorithm: rsaEncryption
                Public-Key: (4096 bit)
                Modulus:
                    00:cc:90:bb:9c:ed:64:71:8d:ca:d8:e1:a2:e6:12:
                    5d:f0:86:c8:2c:3f:5d:18:c2:a4:f9:9a:ae:5b:74:
                    fd:cd:58:d5:74:8e:42:a1:c3:5f:02:ee:f5:0f:06:
                    fb:f3:1d:95:ea:23:b8:5e:21:5a:b7:c9:26:d0:50:
                    90:85:8e:23:86:90:dc:de:1d:5a:bd:f5:c9:1b:de:
                    cf:f5:e2:37:c1:48:52:b3:e0:f0:c3:67:02:1f:77:
                    1b:d4:68:3f:cd:8a:89:f3:0a:e4:20:c8:80:63:4c:
                    38:50:6f:b9:4e:16:ce:1c:4b:d8:75:e6:1e:88:b3:
                    09:ca:b3:d8:26:34:d8:54:a1:85:95:2a:a2:b1:1f:
                    fd:e9:f4:65:dd:84:f8:1f:45:b9:4e:54:72:a3:34:
                    15:df:b3:c4:8b:c1:80:f0:ae:01:4e:84:78:76:e3:
                    f3:ca:28:ba:08:da:d6:44:26:f9:64:05:dc:b2:99:
                    14:ad:b2:67:ae:ac:a1:10:43:27:80:60:4d:0f:a3:
                    53:ca:43:11:e3:3e:f1:19:40:bd:6b:6e:67:c7:44:
                    29:87:ea:94:55:15:c4:9e:a4:97:41:b8:6d:fc:2e:
                    60:87:db:89:6b:70:b9:0b:77:d8:04:36:b4:56:84:
                    4e:d9:36:4d:a0:7c:59:09:01:55:c4:cb:bf:48:cd:
                    d9:11:5b:2b:b4:b3:b0:8b:99:af:46:d2:44:ff:a4:
                    c5:b7:a6:38:0c:35:b3:99:3e:26:20:ac:06:03:4e:
                    d2:d9:ae:90:fe:d4:be:64:6a:eb:ee:02:92:43:b5:
                    d8:02:82:4d:ca:09:ba:75:47:f7:47:96:11:fe:83:
                    e4:d9:da:78:b7:fc:ea:70:46:43:ec:8f:6a:de:5d:
                    b0:56:b1:8e:6b:47:db:28:18:78:c7:2d:4b:22:7d:
                    99:45:bc:fe:9f:37:31:d1:22:4d:35:4f:71:63:6a:
                    a1:d5:04:47:27:de:ad:fe:fb:d0:6e:cb:55:c8:fa:
                    4f:9b:71:11:b6:6d:ae:ea:1d:41:6a:80:5f:6f:6c:
                    6f:64:06:b8:65:75:43:3e:02:05:85:5a:aa:3e:e1:
                    7e:90:e5:16:11:c6:78:a7:2f:e4:84:15:13:5e:bf:
                    53:6f:dc:65:3d:e2:9f:a3:8b:39:af:15:ef:2e:a2:
                    c8:ad:f7:66:9e:d1:c0:2f:b6:32:01:02:35:15:03:
                    54:da:fa:a2:5d:d8:33:9c:76:3e:be:7d:30:15:64:
                    95:bb:4e:ca:0d:08:6a:99:25:ee:9e:57:4e:d3:87:
                    ed:30:1e:e9:9c:bc:9e:ce:21:b5:bd:49:fb:bd:a1:
                    a7:4d:fc:2d:53:5b:95:1a:63:30:83:c6:6c:52:11:
                    a3:5e:ef
                Exponent: 65537 (0x10001)
        X509v3 extensions:
            X509v3 Subject Key Identifier: 
                CB:C0:D7:BF:70:FC:35:C4:1F:BB:C9:1C:99:E9:D6:1E:56:B2:18:83
            X509v3 Authority Key Identifier: 
                keyid:79:1C:C7:47:39:3A:A4:C0:EF:3E:EA:62:54:9A:DE:DA:DF:F4:F5:FA

            X509v3 Basic Constraints: critical
                CA:TRUE
            X509v3 Key Usage: 
                Certificate Sign, CRL Sign
    Signature Algorithm: sha256WithRSAEncryption
         10:e9:59:21:7c:1c:c3:94:bf:8b:e1:70:bf:54:cb:ca:46:33:
         cf:54:8b:23:ae:16:ea:94:7d:8e:73:d7:76:c0:ab:36:84:32:
         b6:b2:e5:bb:cd:e9:01:85:c6:d4:6c:12:e4:c3:5b:c0:87:fc:
         10:02:77:7a:41:b4:ec:b4:16:a4:26:63:ff:d4:f9:4d:ab:9a:
         98:0b:f1:0f:af:84:39:bd:cf:e5:dc:25:f7:58:b6:88:bc:1e:
         bb:af:40:63:d4:1c:6d:85:a2:8d:8a:32:b5:1b:5b:8e:62:3e:
         0a:ea:3f:b4:c1:2a:81:0c:00:5e:3d:ad:c4:5e:de:e9:47:6e:
         83:14:aa:1d:39:36:cb:bc:41:b5:3c:7e:86:e6:6c:df:60:60:
         c6:39:46:91:ba:97:88:40:d8:6f:3b:db:e9:3b:4c:2c:e5:58:
         9e:95:2f:c4:2f:62:a1:de:f0:2a:2d:5d:fe:10:62:cd:a7:22:
         f8:63:98:e0:6e:ab:1b:ac:9b:57:fa:2e:36:20:89:96:fe:1f:
         84:54:72:8c:d7:7a:11:17:d5:8b:ac:b1:c1:20:9f:e7:5c:e7:
         fa:5c:1f:30:c8:66:55:e1:63:f2:8d:31:08:65:1b:82:85:42:
         22:9d:ea:32:f8:80:60:a5:95:5e:af:0e:c4:e1:f8:58:44:8f:
         17:c0:91:9d:e5:95:2c:3f:80:28:70:f4:d3:a5:11:8a:47:e0:
         95:74:4e:15:39:9a:4e:3a:9e:8f:da:87:3a:bc:a3:0f:1b:f4:
         3e:67:bd:a4:59:39:d9:69:74:53:69:a2:06:36:35:68:b5:3c:
         2f:36:0a:d7:75:84:20:13:99:7a:42:79:1b:33:a3:94:33:96:
         7b:3c:4d:59:1a:b5:e5:67:e8:e0:63:39:fe:78:be:69:43:01:
         f9:4d:4c:f0:81:f9:3f:62:ce:a7:21:57:fb:b6:11:31:08:5f:
         dd:54:63:7d:e6:88:88:c0:32:62:c1:cb:19:92:9e:b5:2f:c5:
         5e:65:59:2f:1c:36:b5:4a:9b:50:f9:c8:69:a9:96:fe:f0:66:
         2c:eb:c7:0d:b8:0a:d0:10:5b:7b:e0:64:13:2d:a4:fc:98:fb:
         f6:40:8d:8c:ec:f0:14:06:e8:c6:b3:7e:c5:d1:de:d5:bc:df:
         42:d9:93:4d:d1:44:a9:ef:f4:e4:e3:42:8c:b7:0a:0d:b2:b6:
         95:88:61:8a:72:a3:2c:e8:7d:39:e4:20:b6:e1:e3:ba:93:91:
         39:42:56:7e:95:9c:fb:ff:8c:69:78:4e:a6:95:51:ff:19:4e:
         15:5e:d5:6b:03:75:90:d6:a4:4d:91:77:d4:fa:74:5e:ae:ee:
         84:76:28:b8:3e:56:65:3d
-----BEGIN CERTIFICATE-----
MIIFpzCCA4+gAwIBAgICEAAwDQYJKoZIhvcNAQELBQAwaTELMAkGA1UEBhMCU0Ux
FTATBgNVBAgMDEludGVybWVkaWF0ZTEVMBMGA1UECgwMSW50ZXJtZWRpYXRlMRUw
EwYDVQQLDAxJbnRlcm1lZGlhdGUxFTATBgNVBAMMDEludGVybWVkaWF0ZTAeFw0x
ODEwMDQxMTAxMjZaFw0yODEwMDExMTAxMjZaMGIxCzAJBgNVBAYTAlNFMQ8wDQYD
VQQIDAZFdmlsQ0ExDzANBgNVBAcMBkV2aWxDQTEPMA0GA1UECgwGRXZpbENBMQ8w
DQYDVQQLDAZFdmlsQ0ExDzANBgNVBAMMBkV2aWxDQTCCAiIwDQYJKoZIhvcNAQEB
BQADggIPADCCAgoCggIBAMyQu5ztZHGNytjhouYSXfCGyCw/XRjCpPmarlt0/c1Y
1XSOQqHDXwLu9Q8G+/MdleojuF4hWrfJJtBQkIWOI4aQ3N4dWr31yRvez/XiN8FI
UrPg8MNnAh93G9RoP82KifMK5CDIgGNMOFBvuU4WzhxL2HXmHoizCcqz2CY02FSh
hZUqorEf/en0Zd2E+B9FuU5UcqM0Fd+zxIvBgPCuAU6EeHbj88oougja1kQm+WQF
3LKZFK2yZ66soRBDJ4BgTQ+jU8pDEeM+8RlAvWtuZ8dEKYfqlFUVxJ6kl0G4bfwu
YIfbiWtwuQt32AQ2tFaETtk2TaB8WQkBVcTLv0jN2RFbK7SzsIuZr0bSRP+kxbem
OAw1s5k+JiCsBgNO0tmukP7UvmRq6+4CkkO12AKCTcoJunVH90eWEf6D5NnaeLf8
6nBGQ+yPat5dsFaxjmtH2ygYeMctSyJ9mUW8/p83MdEiTTVPcWNqodUERyferf77
0G7LVcj6T5txEbZtruodQWqAX29sb2QGuGV1Qz4CBYVaqj7hfpDlFhHGeKcv5IQV
E16/U2/cZT3in6OLOa8V7y6iyK33Zp7RwC+2MgECNRUDVNr6ol3YM5x2Pr59MBVk
lbtOyg0Iapkl7p5XTtOH7TAe6Zy8ns4htb1J+72hp038LVNblRpjMIPGbFIRo17v
AgMBAAGjYDBeMB0GA1UdDgQWBBTLwNe/cPw1xB+7yRyZ6dYeVrIYgzAfBgNVHSME
GDAWgBR5HMdHOTqkwO8+6mJUmt7a3/T1+jAPBgNVHRMBAf8EBTADAQH/MAsGA1Ud
DwQEAwIBBjANBgkqhkiG9w0BAQsFAAOCAgEAEOlZIXwcw5S/i+Fwv1TLykYzz1SL
I64W6pR9jnPXdsCrNoQytrLlu83pAYXG1GwS5MNbwIf8EAJ3ekG07LQWpCZj/9T5
TauamAvxD6+EOb3P5dwl91i2iLweu69AY9QcbYWijYoytRtbjmI+Cuo/tMEqgQwA
Xj2txF7e6UdugxSqHTk2y7xBtTx+huZs32BgxjlGkbqXiEDYbzvb6TtMLOVYnpUv
xC9iod7wKi1d/hBizaci+GOY4G6rG6ybV/ouNiCJlv4fhFRyjNd6ERfVi6yxwSCf
51zn+lwfMMhmVeFj8o0xCGUbgoVCIp3qMviAYKWVXq8OxOH4WESPF8CRneWVLD+A
KHD006URikfglXROFTmaTjqej9qHOryjDxv0Pme9pFk52Wl0U2miBjY1aLU8LzYK
13WEIBOZekJ5GzOjlDOWezxNWRq15Wfo4GM5/ni+aUMB+U1M8IH5P2LOpyFX+7YR
MQhf3VRjfeaIiMAyYsHLGZKetS/FXmVZLxw2tUqbUPnIaamW/vBmLOvHDbgK0BBb
e+BkEy2k/Jj79kCNjOzwFAboxrN+xdHe1bzfQtmTTdFEqe/05ONCjLcKDbK2lYhh
inKjLOh9OeQgtuHjupOROUJWfpWc+/+MaXhOppVR/xlOFV7VawN1kNakTZF31Pp0
Xq7uhHYouD5WZT0=
-----END CERTIFICATE-----
