Certificate:
    Data:
        Version: 3 (0x2)
        Serial Number: 4097 (0x1001)
    Signature Algorithm: sha256WithRSAEncryption
        Issuer: C=SE, ST=EvilCA, L=EvilCA, O=EvilCA, OU=EvilCA, CN=EvilCA
        Validity
            Not Before: Oct  4 11:02:33 2018 GMT
            Not After : Oct  1 11:02:33 2028 GMT
        Subject: C=SE, ST=EvilServer, L=EvilServer, O=EvilServer, OU=EvilServer, CN=EvilServer
        Subject Public Key Info:
            Public Key Algorithm: rsaEncryption
                Public-Key: (4096 bit)
                Modulus:
                    00:b8:85:5b:3a:fb:95:12:a3:c5:a7:06:ef:69:c8:
                    57:ee:61:38:01:03:6b:bb:6d:67:b6:09:ef:b2:f8:
                    6c:00:22:8e:10:bd:49:ed:9d:02:d5:33:c2:8c:e9:
                    02:ed:f3:1f:e6:be:27:e0:24:45:01:02:48:ef:e6:
                    15:c2:ef:04:26:dc:e5:42:e4:08:c6:be:dc:a7:4d:
                    12:c4:76:88:99:a4:6e:37:db:d0:23:59:31:b5:ab:
                    b4:eb:a0:76:6b:5b:41:10:5f:b6:47:25:15:db:d1:
                    ea:35:85:92:bb:bf:ca:35:4c:52:85:ad:26:27:e7:
                    68:f5:fa:c2:aa:72:72:44:87:1e:90:99:04:7d:6a:
                    f7:4f:75:02:44:37:a9:62:80:2f:d2:62:76:7e:6d:
                    e8:ae:90:f6:b6:aa:dd:3e:a9:a1:e3:fe:5a:97:5b:
                    6a:0d:83:00:72:84:23:b0:7c:d4:9a:51:0b:5a:22:
                    1a:94:38:8c:a1:e4:11:e0:98:83:10:52:5f:66:d2:
                    ea:fc:4b:70:af:07:ad:db:9c:20:6a:03:56:bb:4c:
                    08:32:cf:dd:cc:4d:24:ea:41:18:89:14:a7:f6:10:
                    9a:4f:ef:cf:c7:ee:dd:94:2f:e4:c1:17:3e:c6:65:
                    ad:2b:10:07:1e:88:12:42:d0:f0:d2:3a:3b:24:0e:
                    54:87:b7:4c:38:f6:d0:98:52:a8:2c:b4:20:ba:75:
                    4d:46:4a:2d:6b:9b:7d:43:9a:3f:9c:eb:af:43:44:
                    e9:04:93:92:e6:52:39:89:79:a3:34:b6:d2:5e:cb:
                    93:37:26:a9:e2:13:af:ea:f4:58:40:41:66:d2:27:
                    28:1a:6e:0d:d8:f0:9a:b6:61:38:a8:15:fd:f4:03:
                    ef:27:27:43:51:47:bb:fe:49:cc:83:5d:9c:27:87:
                    55:7f:37:c8:ef:3d:53:7d:78:9f:87:5e:ca:88:20:
                    3c:21:5c:10:ca:1c:1e:93:27:7d:7c:0c:06:ff:be:
                    a9:7a:1e:84:5c:d0:58:93:6d:1e:55:e9:23:43:d1:
                    52:e8:95:ec:8f:a8:7d:83:a5:3c:05:4a:76:e3:be:
                    af:cf:a1:3d:5a:73:9a:3c:c4:11:82:9b:14:4b:8a:
                    7c:51:c5:04:ea:1f:af:70:d9:7c:5f:f0:f2:5d:a8:
                    5b:15:da:29:3a:78:2a:8d:54:09:bf:af:4b:4f:13:
                    a3:09:05:4e:d5:16:ea:ca:1e:f7:37:f5:1a:0e:0b:
                    36:96:44:18:3e:e4:c8:f6:fb:94:07:eb:2b:d7:19:
                    28:d5:41:f7:d5:32:25:6d:71:9c:3d:bf:b3:74:d2:
                    cc:1a:26:b4:27:de:31:8a:d2:3c:51:ee:a8:e0:02:
                    87:d7:af
                Exponent: 65537 (0x10001)
        X509v3 extensions:
            X509v3 Basic Constraints: critical
                CA:FALSE
            X509v3 Key Usage: critical
                Digital Signature, Key Encipherment
            X509v3 Extended Key Usage: critical
                TLS Web Server Authentication
            X509v3 Subject Key Identifier: 
                5F:46:6A:39:BF:12:B8:64:F4:26:AA:60:BA:3E:65:3B:4D:C7:31:FA
            X509v3 Authority Key Identifier: 
                keyid:CB:C0:D7:BF:70:FC:35:C4:1F:BB:C9:1C:99:E9:D6:1E:56:B2:18:83

    Signature Algorithm: sha256WithRSAEncryption
         a6:f7:d5:4c:14:c2:19:ad:58:27:fd:34:6b:7c:1f:89:03:1e:
         e3:9b:1b:12:dc:29:07:89:80:f2:9d:ff:21:de:61:93:e0:a0:
         34:09:15:9b:c5:98:6d:18:ef:b2:99:9f:78:9e:7e:ee:25:d1:
         46:96:3e:fb:38:81:71:34:0f:23:44:23:f7:65:df:d8:13:7f:
         fd:6b:37:e6:7a:b1:5f:9f:79:52:0c:4b:f1:bd:83:2c:a1:55:
         85:30:2e:fd:0a:cd:17:c5:9f:4d:a8:5a:2b:bc:2f:71:ac:ff:
         d5:d8:dd:af:28:ce:f1:29:2a:1b:07:be:1e:d3:e1:4b:6a:e0:
         f5:fc:64:9a:b6:67:97:f8:b5:83:c6:57:9c:25:0e:35:84:1f:
         48:af:eb:61:b6:ed:c4:9f:1e:f8:bf:fe:14:ba:90:62:62:91:
         b0:d0:b8:a2:16:e9:6e:66:78:3e:b7:62:54:62:c4:c5:88:20:
         10:a2:d4:9b:3f:5f:5a:24:a0:6f:cf:fa:58:21:7c:c8:64:09:
         d1:8c:38:e2:86:bf:d9:1d:1f:93:9f:62:a5:11:53:5e:76:fa:
         d8:13:da:78:d2:b9:72:6a:26:16:cf:18:f7:a6:9b:7e:33:4c:
         7b:ea:ef:36:57:9f:8c:c9:b2:3d:36:9b:63:d3:0e:1d:cb:dd:
         4f:50:6d:15:7f:bc:64:05:3d:f8:72:42:50:4d:e3:76:f7:6b:
         e7:f8:1c:1f:9c:2e:b6:26:c8:23:2e:71:c4:f0:0d:57:ca:4a:
         20:78:40:b8:ca:d1:ad:97:f5:c0:ce:5c:92:e9:51:f1:eb:66:
         db:8e:9e:d2:b9:c8:a3:f2:3e:23:61:a1:53:75:d0:95:de:ca:
         a3:48:e9:d0:99:7f:eb:05:37:64:59:33:03:98:41:32:35:a9:
         00:bd:fb:2e:20:ef:fd:e9:99:cd:c2:59:07:6e:53:e1:4f:c0:
         f3:7f:40:d9:43:0c:0b:7d:11:61:e3:c8:97:7d:e9:27:01:43:
         34:c6:2f:77:98:ab:f1:d6:01:52:05:35:ae:b3:f0:01:58:41:
         ef:6c:4e:4e:03:90:43:b7:6d:dd:57:3c:d3:1a:87:ba:37:14:
         71:01:b9:9f:79:c5:ab:2f:23:d0:37:51:19:9c:5c:e6:07:95:
         ae:8a:a8:d0:a7:a2:f7:74:b7:b7:70:53:f4:ea:47:0a:74:ec:
         6d:15:c6:b8:8e:c5:bf:12:31:81:30:9c:d4:4e:9f:68:65:77:
         a3:eb:79:7b:98:91:9d:e3:c4:ff:e5:8e:5a:53:d7:3e:69:16:
         28:9e:a1:cd:55:ca:10:c4:58:a1:80:ef:9a:7a:ea:f0:6e:b1:
         6a:0e:83:37:c7:37:5f:9f
-----BEGIN CERTIFICATE-----
MIIFzDCCA7SgAwIBAgICEAEwDQYJKoZIhvcNAQELBQAwYjELMAkGA1UEBhMCU0Ux
DzANBgNVBAgMBkV2aWxDQTEPMA0GA1UEBwwGRXZpbENBMQ8wDQYDVQQKDAZFdmls
Q0ExDzANBgNVBAsMBkV2aWxDQTEPMA0GA1UEAwwGRXZpbENBMB4XDTE4MTAwNDEx
MDIzM1oXDTI4MTAwMTExMDIzM1owdjELMAkGA1UEBhMCU0UxEzARBgNVBAgMCkV2
aWxTZXJ2ZXIxEzARBgNVBAcMCkV2aWxTZXJ2ZXIxEzARBgNVBAoMCkV2aWxTZXJ2
ZXIxEzARBgNVBAsMCkV2aWxTZXJ2ZXIxEzARBgNVBAMMCkV2aWxTZXJ2ZXIwggIi
MA0GCSqGSIb3DQEBAQUAA4ICDwAwggIKAoICAQC4hVs6+5USo8WnBu9pyFfuYTgB
A2u7bWe2Ce+y+GwAIo4QvUntnQLVM8KM6QLt8x/mvifgJEUBAkjv5hXC7wQm3OVC
5AjGvtynTRLEdoiZpG4329AjWTG1q7TroHZrW0EQX7ZHJRXb0eo1hZK7v8o1TFKF
rSYn52j1+sKqcnJEhx6QmQR9avdPdQJEN6ligC/SYnZ+beiukPa2qt0+qaHj/lqX
W2oNgwByhCOwfNSaUQtaIhqUOIyh5BHgmIMQUl9m0ur8S3CvB63bnCBqA1a7TAgy
z93MTSTqQRiJFKf2EJpP78/H7t2UL+TBFz7GZa0rEAceiBJC0PDSOjskDlSHt0w4
9tCYUqgstCC6dU1GSi1rm31Dmj+c669DROkEk5LmUjmJeaM0ttJey5M3JqniE6/q
9FhAQWbSJygabg3Y8Jq2YTioFf30A+8nJ0NRR7v+ScyDXZwnh1V/N8jvPVN9eJ+H
XsqIIDwhXBDKHB6TJ318DAb/vql6HoRc0FiTbR5V6SND0VLoleyPqH2DpTwFSnbj
vq/PoT1ac5o8xBGCmxRLinxRxQTqH69w2Xxf8PJdqFsV2ik6eCqNVAm/r0tPE6MJ
BU7VFurKHvc39RoOCzaWRBg+5Mj2+5QH6yvXGSjVQffVMiVtcZw9v7N00swaJrQn
3jGK0jxR7qjgAofXrwIDAQABo3gwdjAMBgNVHRMBAf8EAjAAMA4GA1UdDwEB/wQE
AwIFoDAWBgNVHSUBAf8EDDAKBggrBgEFBQcDATAdBgNVHQ4EFgQUX0ZqOb8SuGT0
Jqpguj5lO03HMfowHwYDVR0jBBgwFoAUy8DXv3D8NcQfu8kcmenWHlayGIMwDQYJ
KoZIhvcNAQELBQADggIBAKb31UwUwhmtWCf9NGt8H4kDHuObGxLcKQeJgPKd/yHe
YZPgoDQJFZvFmG0Y77KZn3iefu4l0UaWPvs4gXE0DyNEI/dl39gTf/1rN+Z6sV+f
eVIMS/G9gyyhVYUwLv0KzRfFn02oWiu8L3Gs/9XY3a8ozvEpKhsHvh7T4Utq4PX8
ZJq2Z5f4tYPGV5wlDjWEH0iv62G27cSfHvi//hS6kGJikbDQuKIW6W5meD63YlRi
xMWIIBCi1Js/X1okoG/P+lghfMhkCdGMOOKGv9kdH5OfYqURU152+tgT2njSuXJq
JhbPGPemm34zTHvq7zZXn4zJsj02m2PTDh3L3U9QbRV/vGQFPfhyQlBN43b3a+f4
HB+cLrYmyCMuccTwDVfKSiB4QLjK0a2X9cDOXJLpUfHrZtuOntK5yKPyPiNhoVN1
0JXeyqNI6dCZf+sFN2RZMwOYQTI1qQC9+y4g7/3pmc3CWQduU+FPwPN/QNlDDAt9
EWHjyJd96ScBQzTGL3eYq/HWAVIFNa6z8AFYQe9sTk4DkEO3bd1XPNMah7o3FHEB
uZ95xasvI9A3URmcXOYHla6KqNCnovd0t7dwU/TqRwp07G0VxriOxb8SMYEwnNRO
n2hld6PreXuYkZ3jxP/ljlpT1z5pFiieoc1VyhDEWKGA75p66vBusWoOgzfHN1+f
-----END CERTIFICATE-----
