Certificate:
    Data:
        Version: 3 (0x2)
        Serial Number: 4097 (0x1001)
    Signature Algorithm: sha256WithRSAEncryption
        Issuer: C=SE, ST=EvilServer, L=EvilServer, O=EvilServer, OU=EvilServer, CN=EvilServer
        Validity
            Not Before: Oct  3 16:47:40 2018 GMT
            Not After : Sep 30 16:47:40 2028 GMT
        Subject: C=SE, ST=EvilServer, L=EvilServer, O=EvilServer, OU=EvilServer, CN=EvilServer
        Subject Public Key Info:
            Public Key Algorithm: rsaEncryption
                Public-Key: (4096 bit)
                Modulus:
                    00:af:83:6f:e8:67:89:6c:84:85:87:55:64:96:fd:
                    69:d3:86:00:96:1d:a4:61:f1:65:b4:92:f0:6c:c5:
                    e9:60:67:cf:2c:c2:74:61:48:af:2d:87:70:1f:ee:
                    b2:48:de:1d:3b:4f:0b:1c:28:f1:45:08:94:10:f6:
                    96:4d:bc:55:bb:cc:ee:34:14:68:ce:56:5c:90:09:
                    3f:c3:11:67:00:38:86:4b:a8:2b:32:8b:4f:0a:63:
                    7f:5c:b6:71:e8:04:56:2d:ea:37:6b:cb:10:27:0d:
                    70:fc:e5:38:4d:c4:6e:48:98:af:79:27:15:2b:53:
                    93:d2:aa:b3:00:8e:32:18:e0:df:73:42:1c:48:44:
                    87:e7:01:d4:6d:f5:39:d0:25:c1:de:ab:8b:4e:de:
                    e5:60:33:c5:87:3d:3a:f1:f6:02:62:df:39:02:e8:
                    50:a9:77:91:39:f5:6b:5a:84:2d:ff:ad:eb:d3:f7:
                    34:8c:96:5e:c1:ff:37:6c:4b:fc:d5:92:99:dd:ca:
                    4f:76:90:96:64:35:09:82:06:e1:02:c9:f6:e2:d9:
                    bb:dd:56:5c:88:ac:e8:5f:16:5e:46:de:04:af:77:
                    8d:7e:7b:51:6f:25:7c:30:ec:08:66:3e:fc:69:cd:
                    a2:0c:8f:e2:e6:16:b1:4c:56:62:c0:91:d1:89:ce:
                    5a:19:eb:87:70:10:15:dd:cc:ba:03:eb:8c:08:70:
                    de:59:03:cd:fe:83:bc:f3:10:92:81:67:01:83:76:
                    96:c9:a8:3d:35:03:55:7c:38:c6:56:5d:3a:c1:3b:
                    7a:31:7d:93:f9:f1:bd:f5:80:e1:0f:27:d1:46:bf:
                    cb:31:cc:fc:c7:5e:95:4f:35:20:af:ad:d1:df:5c:
                    89:73:55:15:e6:b4:b9:c1:c8:15:19:36:34:16:e4:
                    25:42:83:40:80:ea:f4:13:7f:7d:b5:a8:ac:74:13:
                    cb:e3:a5:d6:6e:7f:fd:c7:aa:fb:cd:cc:f5:44:a0:
                    c4:0d:ba:27:b5:93:ab:26:bf:29:db:9d:84:f9:36:
                    5f:53:38:0b:dc:f7:ac:fc:ea:9b:0d:3f:0e:65:cb:
                    36:0b:51:f6:0c:22:e9:ab:a7:d9:44:c7:5b:ef:62:
                    07:21:b4:0e:4a:dd:3a:0e:f8:27:2f:ac:c0:61:b5:
                    3a:cc:49:eb:ce:26:47:fe:69:94:ce:40:47:4b:87:
                    79:ef:84:3d:4b:ad:4b:8a:b8:dc:50:51:28:09:52:
                    3b:d1:2a:46:36:49:e9:f7:3e:1a:2c:48:da:0d:17:
                    a7:3a:92:de:e5:2c:0d:1d:76:0d:1d:75:38:50:55:
                    ce:a8:57:27:2c:8e:9c:f9:be:57:2e:a6:f4:80:7a:
                    dd:4f:fb
                Exponent: 65537 (0x10001)
        X509v3 extensions:
            X509v3 Basic Constraints: critical
                CA:FALSE
            X509v3 Key Usage: critical
                Digital Signature, Key Encipherment
            X509v3 Extended Key Usage: critical
                TLS Web Server Authentication
            X509v3 Subject Key Identifier: 
                1F:95:2F:26:9D:E1:37:BD:1F:9C:B5:51:FC:28:9C:EA:9F:1E:C8:B6
            X509v3 Authority Key Identifier: 
                keyid:17:49:AA:01:F6:25:85:23:3F:A6:7A:43:D3:97:2A:F8:74:27:89:A0

    Signature Algorithm: sha256WithRSAEncryption
         30:e8:f3:65:5d:a9:5b:c9:29:59:64:5e:84:33:ca:dc:07:b6:
         21:66:5d:e4:0c:6c:71:78:d2:f7:c1:ee:ca:d2:16:49:90:b5:
         2b:6b:ea:10:21:91:c3:db:e5:c3:d2:ac:e4:83:10:63:1f:94:
         a2:e7:68:cf:07:fb:e9:6a:48:f2:79:b3:60:13:15:0f:d4:91:
         b5:de:c7:1c:5c:a4:55:c4:1b:c0:ec:b5:7b:b1:6f:4b:55:6b:
         5f:78:bf:17:f1:2d:5e:80:87:70:7d:50:6f:cf:bd:ef:2a:49:
         20:04:a8:85:d7:a3:06:39:bf:84:a4:cd:1c:23:27:03:2c:e7:
         20:a7:33:6c:64:db:a7:38:78:74:11:e4:cd:61:81:52:91:97:
         df:43:1c:30:67:f2:00:2f:da:03:62:aa:ef:74:ab:fc:ec:c3:
         64:0b:68:f3:17:ca:70:a4:52:6a:87:14:70:42:00:6a:21:c6:
         55:22:8a:52:ed:c0:d6:6a:bd:d8:c4:1d:0f:86:99:43:ba:c2:
         85:28:5a:cd:3f:d8:35:fc:fe:6a:92:de:23:1a:dd:db:6e:ce:
         f8:98:29:d7:26:62:85:04:5c:72:23:e8:38:6d:8c:70:f7:b5:
         0b:ef:d5:1c:c1:1f:51:db:20:43:c8:05:cf:7a:46:2e:f2:2e:
         f3:14:f1:df:d7:e6:f2:8c:57:72:82:04:e8:39:e3:9c:24:ab:
         2a:60:58:71:f9:3e:fc:fd:f2:db:c1:87:cb:13:43:de:b1:61:
         5a:d3:83:93:a6:ba:7d:3f:5b:fa:b3:f0:1c:93:b6:68:c6:aa:
         8c:04:15:b6:8a:49:3f:7f:69:0d:9c:a9:b8:b8:f8:0d:aa:89:
         36:e5:73:2c:48:56:d9:58:aa:1c:d2:42:eb:57:74:b0:48:25:
         56:d9:b9:53:1f:38:1a:b5:e6:db:d7:9c:6b:6f:99:b3:ae:4b:
         a9:8b:6e:05:ed:44:d1:25:a7:b2:6f:77:ad:11:91:0f:ec:93:
         a4:25:2c:0f:8f:f0:5f:95:55:c9:6d:18:f5:cd:88:18:c6:a6:
         df:20:6f:18:5b:8c:86:9a:41:0b:07:ea:55:63:79:09:cf:0c:
         3d:b1:7c:e4:e6:35:97:76:89:e0:4d:6c:2f:d5:3b:01:ef:a2:
         fe:b7:12:8c:5f:d1:69:be:da:8f:6d:8c:1b:9f:e0:f7:88:de:
         ec:7b:e8:92:36:f1:cc:db:ca:e1:46:3e:c1:93:8e:e4:89:1c:
         10:8c:a6:58:e2:6d:42:96:fb:eb:5b:a2:38:03:50:fd:0e:f8:
         51:fa:d5:d0:4f:f3:27:a8:41:42:93:9f:71:77:82:a9:9f:c4:
         05:fa:50:cc:be:ea:5f:42
-----BEGIN CERTIFICATE-----
MIIF4DCCA8igAwIBAgICEAEwDQYJKoZIhvcNAQELBQAwdjELMAkGA1UEBhMCU0Ux
EzARBgNVBAgMCkV2aWxTZXJ2ZXIxEzARBgNVBAcMCkV2aWxTZXJ2ZXIxEzARBgNV
BAoMCkV2aWxTZXJ2ZXIxEzARBgNVBAsMCkV2aWxTZXJ2ZXIxEzARBgNVBAMMCkV2
aWxTZXJ2ZXIwHhcNMTgxMDAzMTY0NzQwWhcNMjgwOTMwMTY0NzQwWjB2MQswCQYD
VQQGEwJTRTETMBEGA1UECAwKRXZpbFNlcnZlcjETMBEGA1UEBwwKRXZpbFNlcnZl
cjETMBEGA1UECgwKRXZpbFNlcnZlcjETMBEGA1UECwwKRXZpbFNlcnZlcjETMBEG
A1UEAwwKRXZpbFNlcnZlcjCCAiIwDQYJKoZIhvcNAQEBBQADggIPADCCAgoCggIB
AK+Db+hniWyEhYdVZJb9adOGAJYdpGHxZbSS8GzF6WBnzyzCdGFIry2HcB/uskje
HTtPCxwo8UUIlBD2lk28VbvM7jQUaM5WXJAJP8MRZwA4hkuoKzKLTwpjf1y2cegE
Vi3qN2vLECcNcPzlOE3EbkiYr3knFStTk9KqswCOMhjg33NCHEhEh+cB1G31OdAl
wd6ri07e5WAzxYc9OvH2AmLfOQLoUKl3kTn1a1qELf+t69P3NIyWXsH/N2xL/NWS
md3KT3aQlmQ1CYIG4QLJ9uLZu91WXIis6F8WXkbeBK93jX57UW8lfDDsCGY+/GnN
ogyP4uYWsUxWYsCR0YnOWhnrh3AQFd3MugPrjAhw3lkDzf6DvPMQkoFnAYN2lsmo
PTUDVXw4xlZdOsE7ejF9k/nxvfWA4Q8n0Ua/yzHM/MdelU81IK+t0d9ciXNVFea0
ucHIFRk2NBbkJUKDQIDq9BN/fbWorHQTy+Ol1m5//ceq+83M9USgxA26J7WTqya/
KdudhPk2X1M4C9z3rPzqmw0/DmXLNgtR9gwi6aun2UTHW+9iByG0DkrdOg74Jy+s
wGG1OsxJ684mR/5plM5AR0uHee+EPUutS4q43FBRKAlSO9EqRjZJ6fc+GixI2g0X
pzqS3uUsDR12DR11OFBVzqhXJyyOnPm+Vy6m9IB63U/7AgMBAAGjeDB2MAwGA1Ud
EwEB/wQCMAAwDgYDVR0PAQH/BAQDAgWgMBYGA1UdJQEB/wQMMAoGCCsGAQUFBwMB
MB0GA1UdDgQWBBQflS8mneE3vR+ctVH8KJzqnx7ItjAfBgNVHSMEGDAWgBQXSaoB
9iWFIz+mekPTlyr4dCeJoDANBgkqhkiG9w0BAQsFAAOCAgEAMOjzZV2pW8kpWWRe
hDPK3Ae2IWZd5AxscXjS98HuytIWSZC1K2vqECGRw9vlw9Ks5IMQYx+Uoudozwf7
6WpI8nmzYBMVD9SRtd7HHFykVcQbwOy1e7FvS1VrX3i/F/EtXoCHcH1Qb8+97ypJ
IASohdejBjm/hKTNHCMnAyznIKczbGTbpzh4dBHkzWGBUpGX30McMGfyAC/aA2Kq
73Sr/OzDZAto8xfKcKRSaocUcEIAaiHGVSKKUu3A1mq92MQdD4aZQ7rChShazT/Y
Nfz+apLeIxrd227O+Jgp1yZihQRcciPoOG2McPe1C+/VHMEfUdsgQ8gFz3pGLvIu
8xTx39fm8oxXcoIE6DnjnCSrKmBYcfk+/P3y28GHyxND3rFhWtODk6a6fT9b+rPw
HJO2aMaqjAQVtopJP39pDZypuLj4DaqJNuVzLEhW2ViqHNJC61d0sEglVtm5Ux84
GrXm29eca2+Zs65LqYtuBe1E0SWnsm93rRGRD+yTpCUsD4/wX5VVyW0Y9c2IGMam
3yBvGFuMhppBCwfqVWN5Cc8MPbF85OY1l3aJ4E1sL9U7Ae+i/rcSjF/Rab7aj22M
G5/g94je7HvokjbxzNvK4UY+wZOO5IkcEIymWOJtQpb761uiOANQ/Q74UfrV0E/z
J6hBQpOfcXeCqZ/EBfpQzL7qX0I=
-----END CERTIFICATE-----
