Certificate:
    Data:
        Version: 3 (0x2)
        Serial Number: 4096 (0x1000)
    Signature Algorithm: sha256WithRSAEncryption
        Issuer: C=SE, ST=Root, L=Root, O=Root, OU=Root, CN=Root
        Validity
            Not Before: Oct  4 10:58:30 2018 GMT
            Not After : Oct  1 10:58:30 2028 GMT
        Subject: C=SE, ST=Intermediate, O=Intermediate, OU=Intermediate, CN=Intermediate
        Subject Public Key Info:
            Public Key Algorithm: rsaEncryption
                Public-Key: (4096 bit)
                Modulus:
                    00:b4:0d:0e:3d:c9:ce:57:06:f6:5f:eb:0f:bc:b2:
                    9d:a0:ff:2e:7e:6b:b4:7e:96:74:7d:ca:40:6e:6e:
                    bf:95:4f:65:dc:e1:05:36:58:76:9b:9e:74:40:a4:
                    e6:3c:43:f7:61:eb:8b:b4:0f:f5:14:a4:b9:86:cf:
                    7d:1d:d5:d0:1e:c0:2a:e0:83:a1:70:2c:90:48:ae:
                    73:f7:99:72:4f:a2:c4:57:dd:2d:c9:ff:06:25:27:
                    96:10:e2:76:93:da:77:59:25:f1:4a:08:32:20:e2:
                    b5:17:64:40:eb:ef:f2:16:49:36:bd:32:52:c3:ae:
                    cd:1b:f5:09:b3:85:5b:43:da:8a:d8:66:6d:85:81:
                    9f:96:eb:59:be:aa:99:35:58:6c:1b:29:3c:59:97:
                    b9:2e:a2:09:4e:d9:98:24:14:9e:98:dd:b1:fa:6c:
                    8b:33:ec:66:29:4c:7c:51:9e:04:dc:bf:5c:fd:17:
                    aa:33:7d:88:18:fb:7d:31:f8:25:8f:df:f1:83:b8:
                    04:fe:0d:95:a9:ba:b0:1a:32:b2:97:cb:47:1b:d3:
                    92:3c:d2:eb:f9:bc:6a:e7:e9:f0:b7:6f:a6:ff:e1:
                    ba:cd:be:34:a5:04:c2:7e:0a:65:d4:92:3d:a8:e5:
                    95:f0:fe:06:f2:9b:4b:f0:0b:0f:a4:18:eb:1a:bd:
                    48:0d:79:17:46:ab:7b:9e:a2:9e:96:c7:5a:2b:21:
                    30:fb:2c:c2:ab:fe:fa:aa:db:87:6c:b3:ca:e6:2b:
                    f5:c9:92:a8:07:28:fc:98:48:2f:99:5d:38:06:ac:
                    2f:e0:7b:42:9c:e7:6f:d6:9e:a5:b8:15:b2:93:04:
                    dc:19:12:13:92:e9:89:81:04:d3:a5:7e:16:bd:22:
                    a7:f4:c5:fe:5b:11:18:d6:0a:03:3e:16:08:15:6c:
                    88:b4:79:f1:b5:94:99:9b:2a:6a:bb:10:f0:8b:7d:
                    8c:84:33:be:88:b4:23:09:c8:1f:2c:c0:fc:24:ae:
                    64:16:e3:1f:8e:5c:20:ce:69:f8:c7:08:c2:e8:79:
                    be:85:28:5e:31:86:c4:97:3e:98:e7:9b:10:49:76:
                    fe:e6:9f:73:90:6f:fd:8d:85:bc:52:78:b1:d0:c5:
                    1e:98:2e:d2:b1:be:74:ee:82:ab:90:a7:b9:35:09:
                    6f:41:b8:e0:04:70:da:39:7a:a7:30:88:63:5c:f8:
                    1d:b6:d0:60:59:9e:6c:24:d9:67:46:d3:23:ac:0f:
                    4f:e8:d4:d9:73:0e:55:41:30:94:21:ea:6f:94:85:
                    58:57:e7:38:37:37:6a:86:ec:58:35:3d:b7:f0:4b:
                    90:d7:f0:20:f9:00:df:b0:a0:ad:3c:10:29:7a:5e:
                    1f:26:63
                Exponent: 65537 (0x10001)
        X509v3 extensions:
            X509v3 Subject Key Identifier: 
                79:1C:C7:47:39:3A:A4:C0:EF:3E:EA:62:54:9A:DE:DA:DF:F4:F5:FA
            X509v3 Authority Key Identifier: 
                keyid:E2:3B:CA:70:D8:2C:B0:FC:61:DB:A0:BA:50:9E:F8:CA:C5:E5:58:1D

            X509v3 Key Usage: 
                Certificate Sign, CRL Sign
            X509v3 Basic Constraints: critical
                CA:TRUE, pathlen:0
    Signature Algorithm: sha256WithRSAEncryption
         3b:c0:94:b3:04:af:aa:49:95:43:44:99:1e:85:42:91:ac:c6:
         d1:cd:15:cd:6f:e7:11:bb:e8:3d:69:c5:2f:4a:3f:31:5f:fd:
         e4:34:4b:84:90:64:7f:90:35:82:8d:91:60:0d:d9:77:50:4e:
         3f:b6:78:24:27:1b:b0:6f:82:e8:ed:0e:72:40:46:38:fe:13:
         ed:7b:10:14:99:d2:f6:ef:55:64:ba:ed:99:db:e0:ef:11:24:
         60:24:a9:a6:4e:40:e9:e2:4a:b9:a9:fd:8c:55:e0:32:29:b2:
         ea:ac:3e:26:e1:9e:2b:5e:fe:d0:b9:7e:64:73:5e:d6:ad:dc:
         35:fd:c9:34:3e:b3:d5:d7:a7:37:68:7f:2d:4e:b6:ed:ae:b6:
         e7:3f:f8:eb:51:86:45:ab:2e:bc:e6:d1:47:a1:88:d2:e8:06:
         c2:97:59:d3:46:dc:56:49:6d:3b:9f:d6:a0:58:9e:46:f5:79:
         01:8a:a6:4b:46:7f:9c:45:a7:1d:6a:09:2c:bf:b5:47:4f:66:
         b9:0d:8b:7d:e2:b8:87:e3:55:c4:36:48:b3:57:83:d5:a9:73:
         8d:0d:20:80:59:05:36:5b:b8:52:a7:32:82:bd:91:ef:46:76:
         61:b9:21:41:79:5e:d2:1e:6f:f8:2e:1b:50:7c:07:f7:23:2b:
         f5:a4:6a:1c:47:72:4a:52:d4:b0:b5:56:21:40:7c:22:25:9d:
         34:94:96:1a:42:e0:cf:52:4d:bd:30:3a:f4:f7:c0:04:f4:c5:
         b5:bc:39:0b:4b:5a:27:19:fc:10:57:b9:20:ab:ff:36:2b:dc:
         ae:9a:c6:d8:37:18:d1:76:92:39:9c:4e:32:4e:05:34:e7:8f:
         e0:8a:e7:9b:25:a6:62:55:7a:00:29:5d:1f:d5:c2:9e:3c:f8:
         b2:d9:2c:17:28:5b:b5:d1:6d:24:4d:69:91:73:53:fc:b6:59:
         17:fa:dc:f2:a4:98:20:95:74:1c:f7:0d:ec:02:e9:28:49:b1:
         e4:8f:9a:9d:0c:40:f9:73:42:a0:ab:80:aa:5a:a7:62:b9:df:
         ef:f3:62:c9:3e:a0:c8:e5:4c:b2:2d:1f:b0:e9:a5:97:17:18:
         0c:5f:b1:a7:62:bb:71:f5:aa:a0:8e:9a:f7:4b:63:e8:4e:81:
         b0:d6:b7:b6:42:f6:bd:a4:a8:08:a2:b9:ca:a7:d3:dc:a9:fc:
         c5:82:7a:55:47:ab:16:69:fc:f8:82:42:fc:77:ae:e1:58:3a:
         ab:a7:c2:0e:c4:4f:03:8f:4d:e1:c7:74:40:cf:66:3a:49:56:
         12:55:bc:e7:b1:74:9f:0f:b6:aa:3c:89:11:5b:ea:32:c7:bb:
         bc:8c:d1:38:d3:d0:f8:d4
-----BEGIN CERTIFICATE-----
MIIFoDCCA4igAwIBAgICEAAwDQYJKoZIhvcNAQELBQAwWDELMAkGA1UEBhMCU0Ux
DTALBgNVBAgMBFJvb3QxDTALBgNVBAcMBFJvb3QxDTALBgNVBAoMBFJvb3QxDTAL
BgNVBAsMBFJvb3QxDTALBgNVBAMMBFJvb3QwHhcNMTgxMDA0MTA1ODMwWhcNMjgx
MDAxMTA1ODMwWjBpMQswCQYDVQQGEwJTRTEVMBMGA1UECAwMSW50ZXJtZWRpYXRl
MRUwEwYDVQQKDAxJbnRlcm1lZGlhdGUxFTATBgNVBAsMDEludGVybWVkaWF0ZTEV
MBMGA1UEAwwMSW50ZXJtZWRpYXRlMIICIjANBgkqhkiG9w0BAQEFAAOCAg8AMIIC
CgKCAgEAtA0OPcnOVwb2X+sPvLKdoP8ufmu0fpZ0fcpAbm6/lU9l3OEFNlh2m550
QKTmPEP3YeuLtA/1FKS5hs99HdXQHsAq4IOhcCyQSK5z95lyT6LEV90tyf8GJSeW
EOJ2k9p3WSXxSggyIOK1F2RA6+/yFkk2vTJSw67NG/UJs4VbQ9qK2GZthYGflutZ
vqqZNVhsGyk8WZe5LqIJTtmYJBSemN2x+myLM+xmKUx8UZ4E3L9c/ReqM32IGPt9
Mfglj9/xg7gE/g2VqbqwGjKyl8tHG9OSPNLr+bxq5+nwt2+m/+G6zb40pQTCfgpl
1JI9qOWV8P4G8ptL8AsPpBjrGr1IDXkXRqt7nqKelsdaKyEw+yzCq/76qtuHbLPK
5iv1yZKoByj8mEgvmV04Bqwv4HtCnOdv1p6luBWykwTcGRITkumJgQTTpX4WvSKn
9MX+WxEY1goDPhYIFWyItHnxtZSZmypquxDwi32MhDO+iLQjCcgfLMD8JK5kFuMf
jlwgzmn4xwjC6Hm+hSheMYbElz6Y55sQSXb+5p9zkG/9jYW8Unix0MUemC7Ssb50
7oKrkKe5NQlvQbjgBHDaOXqnMIhjXPgdttBgWZ5sJNlnRtMjrA9P6NTZcw5VQTCU
IepvlIVYV+c4NzdqhuxYNT238EuQ1/Ag+QDfsKCtPBApel4fJmMCAwEAAaNjMGEw
HQYDVR0OBBYEFHkcx0c5OqTA7z7qYlSa3trf9PX6MB8GA1UdIwQYMBaAFOI7ynDY
LLD8YdugulCe+MrF5VgdMAsGA1UdDwQEAwIBBjASBgNVHRMBAf8ECDAGAQH/AgEA
MA0GCSqGSIb3DQEBCwUAA4ICAQA7wJSzBK+qSZVDRJkehUKRrMbRzRXNb+cRu+g9
acUvSj8xX/3kNEuEkGR/kDWCjZFgDdl3UE4/tngkJxuwb4Lo7Q5yQEY4/hPtexAU
mdL271Vkuu2Z2+DvESRgJKmmTkDp4kq5qf2MVeAyKbLqrD4m4Z4rXv7QuX5kc17W
rdw1/ck0PrPV16c3aH8tTrbtrrbnP/jrUYZFqy685tFHoYjS6AbCl1nTRtxWSW07
n9agWJ5G9XkBiqZLRn+cRacdagksv7VHT2a5DYt94riH41XENkizV4PVqXONDSCA
WQU2W7hSpzKCvZHvRnZhuSFBeV7SHm/4LhtQfAf3Iyv1pGocR3JKUtSwtVYhQHwi
JZ00lJYaQuDPUk29MDr098AE9MW1vDkLS1onGfwQV7kgq/82K9yumsbYNxjRdpI5
nE4yTgU054/giuebJaZiVXoAKV0f1cKePPiy2SwXKFu10W0kTWmRc1P8tlkX+tzy
pJgglXQc9w3sAukoSbHkj5qdDED5c0Kgq4CqWqdiud/v82LJPqDI5UyyLR+w6aWX
FxgMX7GnYrtx9aqgjpr3S2PoToGw1re2Qva9pKgIornKp9PcqfzFgnpVR6sWafz4
gkL8d67hWDqrp8IOxE8Dj03hx3RAz2Y6SVYSVbznsXSfD7aqPIkRW+oyx7u8jNE4
09D41A==
-----END CERTIFICATE-----
