Certificate:
    Data:
        Version: 3 (0x2)
        Serial Number: 4096 (0x1000)
    Signature Algorithm: sha256WithRSAEncryption
        Issuer: C=SE, ST=Root, L=Root, O=Root, OU=Root, CN=Root
        Validity
            Not Before: Oct  4 10:58:30 2018 GMT
            Not After : Oct  1 10:58:30 2028 GMT
        Subject: C=SE, ST=Intermediate, O=Intermediate, OU=Intermediate, CN=Intermediate
        Subject Public Key Info:
            Public Key Algorithm: rsaEncryption
                Public-Key: (4096 bit)
                Modulus:
                    00:b4:0d:0e:3d:c9:ce:57:06:f6:5f:eb:0f:bc:b2:
                    9d:a0:ff:2e:7e:6b:b4:7e:96:74:7d:ca:40:6e:6e:
                    bf:95:4f:65:dc:e1:05:36:58:76:9b:9e:74:40:a4:
                    e6:3c:43:f7:61:eb:8b:b4:0f:f5:14:a4:b9:86:cf:
                    7d:1d:d5:d0:1e:c0:2a:e0:83:a1:70:2c:90:48:ae:
                    73:f7:99:72:4f:a2:c4:57:dd:2d:c9:ff:06:25:27:
                    96:10:e2:76:93:da:77:59:25:f1:4a:08:32:20:e2:
                    b5:17:64:40:eb:ef:f2:16:49:36:bd:32:52:c3:ae:
                    cd:1b:f5:09:b3:85:5b:43:da:8a:d8:66:6d:85:81:
                    9f:96:eb:59:be:aa:99:35:58:6c:1b:29:3c:59:97:
                    b9:2e:a2:09:4e:d9:98:24:14:9e:98:dd:b1:fa:6c:
                    8b:33:ec:66:29:4c:7c:51:9e:04:dc:bf:5c:fd:17:
                    aa:33:7d:88:18:fb:7d:31:f8:25:8f:df:f1:83:b8:
                    04:fe:0d:95:a9:ba:b0:1a:32:b2:97:cb:47:1b:d3:
                    92:3c:d2:eb:f9:bc:6a:e7:e9:f0:b7:6f:a6:ff:e1:
                    ba:cd:be:34:a5:04:c2:7e:0a:65:d4:92:3d:a8:e5:
                    95:f0:fe:06:f2:9b:4b:f0:0b:0f:a4:18:eb:1a:bd:
                    48:0d:79:17:46:ab:7b:9e:a2:9e:96:c7:5a:2b:21:
                    30:fb:2c:c2:ab:fe:fa:aa:db:87:6c:b3:ca:e6:2b:
                    f5:c9:92:a8:07:28:fc:98:48:2f:99:5d:38:06:ac:
                    2f:e0:7b:42:9c:e7:6f:d6:9e:a5:b8:15:b2:93:04:
                    dc:19:12:13:92:e9:89:81:04:d3:a5:7e:16:bd:22:
                    a7:f4:c5:fe:5b:11:18:d6:0a:03:3e:16:08:15:6c:
                    88:b4:79:f1:b5:94:99:9b:2a:6a:bb:10:f0:8b:7d:
                    8c:84:33:be:88:b4:23:09:c8:1f:2c:c0:fc:24:ae:
                    64:16:e3:1f:8e:5c:20:ce:69:f8:c7:08:c2:e8:79:
                    be:85:28:5e:31:86:c4:97:3e:98:e7:9b:10:49:76:
                    fe:e6:9f:73:90:6f:fd:8d:85:bc:52:78:b1:d0:c5:
                    1e:98:2e:d2:b1:be:74:ee:82:ab:90:a7:b9:35:09:
                    6f:41:b8:e0:04:70:da:39:7a:a7:30:88:63:5c:f8:
                    1d:b6:d0:60:59:9e:6c:24:d9:67:46:d3:23:ac:0f:
                    4f:e8:d4:d9:73:0e:55:41:30:94:21:ea:6f:94:85:
                    58:57:e7:38:37:37:6a:86:ec:58:35:3d:b7:f0:4b:
                    90:d7:f0:20:f9:00:df:b0:a0:ad:3c:10:29:7a:5e:
                    1f:26:63
                Exponent: 65537 (0x10001)
        X509v3 extensions:
            X509v3 Subject Key Identifier: 
                79:1C:C7:47:39:3A:A4:C0:EF:3E:EA:62:54:9A:DE:DA:DF:F4:F5:FA
            X509v3 Authority Key Identifier: 
                keyid:E2:3B:CA:70:D8:2C:B0:FC:61:DB:A0:BA:50:9E:F8:CA:C5:E5:58:1D

            X509v3 Key Usage: 
                Certificate Sign, CRL Sign
            X509v3 Basic Constraints: critical
                CA:TRUE, pathlen:0
    Signature Algorithm: sha256WithRSAEncryption
         3b:c0:94:b3:04:af:aa:49:95:43:44:99:1e:85:42:91:ac:c6:
         d1:cd:15:cd:6f:e7:11:bb:e8:3d:69:c5:2f:4a:3f:31:5f:fd:
         e4:34:4b:84:90:64:7f:90:35:82:8d:91:60:0d:d9:77:50:4e:
         3f:b6:78:24:27:1b:b0:6f:82:e8:ed:0e:72:40:46:38:fe:13:
         ed:7b:10:14:99:d2:f6:ef:55:64:ba:ed:99:db:e0:ef:11:24:
         60:24:a9:a6:4e:40:e9:e2:4a:b9:a9:fd:8c:55:e0:32:29:b2:
         ea:ac:3e:26:e1:9e:2b:5e:fe:d0:b9:7e:64:73:5e:d6:ad:dc:
         35:fd:c9:34:3e:b3:d5:d7:a7:37:68:7f:2d:4e:b6:ed:ae:b6:
         e7:3f:f8:eb:51:86:45:ab:2e:bc:e6:d1:47:a1:88:d2:e8:06:
         c2:97:59:d3:46:dc:56:49:6d:3b:9f:d6:a0:58:9e:46:f5:79:
         01:8a:a6:4b:46:7f:9c:45:a7:1d:6a:09:2c:bf:b5:47:4f:66:
         b9:0d:8b:7d:e2:b8:87:e3:55:c4:36:48:b3:57:83:d5:a9:73:
         8d:0d:20:80:59:05:36:5b:b8:52:a7:32:82:bd:91:ef:46:76:
         61:b9:21:41:79:5e:d2:1e:6f:f8:2e:1b:50:7c:07:f7:23:2b:
         f5:a4:6a:1c:47:72:4a:52:d4:b0:b5:56:21:40:7c:22:25:9d:
         34:94:96:1a:42:e0:cf:52:4d:bd:30:3a:f4:f7:c0:04:f4:c5:
         b5:bc:39:0b:4b:5a:27:19:fc:10:57:b9:20:ab:ff:36:2b:dc:
         ae:9a:c6:d8:37:18:d1:76:92:39:9c:4e:32:4e:05:34:e7:8f:
         e0:8a:e7:9b:25:a6:62:55:7a:00:29:5d:1f:d5:c2:9e:3c:f8:
         b2:d9:2c:17:28:5b:b5:d1:6d:24:4d:69:91:73:53:fc:b6:59:
         17:fa:dc:f2:a4:98:20:95:74:1c:f7:0d:ec:02:e9:28:49:b1:
         e4:8f:9a:9d:0c:40:f9:73:42:a0:ab:80:aa:5a:a7:62:b9:df:
         ef:f3:62:c9:3e:a0:c8:e5:4c:b2:2d:1f:b0:e9:a5:97:17:18:
         0c:5f:b1:a7:62:bb:71:f5:aa:a0:8e:9a:f7:4b:63:e8:4e:81:
         b0:d6:b7:b6:42:f6:bd:a4:a8:08:a2:b9:ca:a7:d3:dc:a9:fc:
         c5:82:7a:55:47:ab:16:69:fc:f8:82:42:fc:77:ae:e1:58:3a:
         ab:a7:c2:0e:c4:4f:03:8f:4d:e1:c7:74:40:cf:66:3a:49:56:
         12:55:bc:e7:b1:74:9f:0f:b6:aa:3c:89:11:5b:ea:32:c7:bb:
         bc:8c:d1:38:d3:d0:f8:d4
-----BEGIN CERTIFICATE-----
MIIFoDCCA4igAwIBAgICEAAwDQYJKoZIhvcNAQELBQAwWDELMAkGA1UEBhMCU0Ux
DTALBgNVBAgMBFJvb3QxDTALBgNVBAcMBFJvb3QxDTALBgNVBAoMBFJvb3QxDTAL
BgNVBAsMBFJvb3QxDTALBgNVBAMMBFJvb3QwHhcNMTgxMDA0MTA1ODMwWhcNMjgx
MDAxMTA1ODMwWjBpMQswCQYDVQQGEwJTRTEVMBMGA1UECAwMSW50ZXJtZWRpYXRl
MRUwEwYDVQQKDAxJbnRlcm1lZGlhdGUxFTATBgNVBAsMDEludGVybWVkaWF0ZTEV
MBMGA1UEAwwMSW50ZXJtZWRpYXRlMIICIjANBgkqhkiG9w0BAQEFAAOCAg8AMIIC
CgKCAgEAtA0OPcnOVwb2X+sPvLKdoP8ufmu0fpZ0fcpAbm6/lU9l3OEFNlh2m550
QKTmPEP3YeuLtA/1FKS5hs99HdXQHsAq4IOhcCyQSK5z95lyT6LEV90tyf8GJSeW
EOJ2k9p3WSXxSggyIOK1F2RA6+/yFkk2vTJSw67NG/UJs4VbQ9qK2GZthYGflutZ
vqqZNVhsGyk8WZe5LqIJTtmYJBSemN2x+myLM+xmKUx8UZ4E3L9c/ReqM32IGPt9
Mfglj9/xg7gE/g2VqbqwGjKyl8tHG9OSPNLr+bxq5+nwt2+m/+G6zb40pQTCfgpl
1JI9qOWV8P4G8ptL8AsPpBjrGr1IDXkXRqt7nqKelsdaKyEw+yzCq/76qtuHbLPK
5iv1yZKoByj8mEgvmV04Bqwv4HtCnOdv1p6luBWykwTcGRITkumJgQTTpX4WvSKn
9MX+WxEY1goDPhYIFWyItHnxtZSZmypquxDwi32MhDO+iLQjCcgfLMD8JK5kFuMf
jlwgzmn4xwjC6Hm+hSheMYbElz6Y55sQSXb+5p9zkG/9jYW8Unix0MUemC7Ssb50
7oKrkKe5NQlvQbjgBHDaOXqnMIhjXPgdttBgWZ5sJNlnRtMjrA9P6NTZcw5VQTCU
IepvlIVYV+c4NzdqhuxYNT238EuQ1/Ag+QDfsKCtPBApel4fJmMCAwEAAaNjMGEw
HQYDVR0OBBYEFHkcx0c5OqTA7z7qYlSa3trf9PX6MB8GA1UdIwQYMBaAFOI7ynDY
LLD8YdugulCe+MrF5VgdMAsGA1UdDwQEAwIBBjASBgNVHRMBAf8ECDAGAQH/AgEA
MA0GCSqGSIb3DQEBCwUAA4ICAQA7wJSzBK+qSZVDRJkehUKRrMbRzRXNb+cRu+g9
acUvSj8xX/3kNEuEkGR/kDWCjZFgDdl3UE4/tngkJxuwb4Lo7Q5yQEY4/hPtexAU
mdL271Vkuu2Z2+DvESRgJKmmTkDp4kq5qf2MVeAyKbLqrD4m4Z4rXv7QuX5kc17W
rdw1/ck0PrPV16c3aH8tTrbtrrbnP/jrUYZFqy685tFHoYjS6AbCl1nTRtxWSW07
n9agWJ5G9XkBiqZLRn+cRacdagksv7VHT2a5DYt94riH41XENkizV4PVqXONDSCA
WQU2W7hSpzKCvZHvRnZhuSFBeV7SHm/4LhtQfAf3Iyv1pGocR3JKUtSwtVYhQHwi
JZ00lJYaQuDPUk29MDr098AE9MW1vDkLS1onGfwQV7kgq/82K9yumsbYNxjRdpI5
nE4yTgU054/giuebJaZiVXoAKV0f1cKePPiy2SwXKFu10W0kTWmRc1P8tlkX+tzy
pJgglXQc9w3sAukoSbHkj5qdDED5c0Kgq4CqWqdiud/v82LJPqDI5UyyLR+w6aWX
FxgMX7GnYrtx9aqgjpr3S2PoToGw1re2Qva9pKgIornKp9PcqfzFgnpVR6sWafz4
gkL8d67hWDqrp8IOxE8Dj03hx3RAz2Y6SVYSVbznsXSfD7aqPIkRW+oyx7u8jNE4
09D41A==
-----END CERTIFICATE-----
Certificate:
    Data:
        Version: 3 (0x2)
        Serial Number: 4096 (0x1000)
    Signature Algorithm: sha256WithRSAEncryption
        Issuer: C=SE, ST=Intermediate, O=Intermediate, OU=Intermediate, CN=Intermediate
        Validity
            Not Before: Oct  4 11:01:26 2018 GMT
            Not After : Oct  1 11:01:26 2028 GMT
        Subject: C=SE, ST=EvilCA, L=EvilCA, O=EvilCA, OU=EvilCA, CN=EvilCA
        Subject Public Key Info:
            Public Key Algorithm: rsaEncryption
                Public-Key: (4096 bit)
                Modulus:
                    00:cc:90:bb:9c:ed:64:71:8d:ca:d8:e1:a2:e6:12:
                    5d:f0:86:c8:2c:3f:5d:18:c2:a4:f9:9a:ae:5b:74:
                    fd:cd:58:d5:74:8e:42:a1:c3:5f:02:ee:f5:0f:06:
                    fb:f3:1d:95:ea:23:b8:5e:21:5a:b7:c9:26:d0:50:
                    90:85:8e:23:86:90:dc:de:1d:5a:bd:f5:c9:1b:de:
                    cf:f5:e2:37:c1:48:52:b3:e0:f0:c3:67:02:1f:77:
                    1b:d4:68:3f:cd:8a:89:f3:0a:e4:20:c8:80:63:4c:
                    38:50:6f:b9:4e:16:ce:1c:4b:d8:75:e6:1e:88:b3:
                    09:ca:b3:d8:26:34:d8:54:a1:85:95:2a:a2:b1:1f:
                    fd:e9:f4:65:dd:84:f8:1f:45:b9:4e:54:72:a3:34:
                    15:df:b3:c4:8b:c1:80:f0:ae:01:4e:84:78:76:e3:
                    f3:ca:28:ba:08:da:d6:44:26:f9:64:05:dc:b2:99:
                    14:ad:b2:67:ae:ac:a1:10:43:27:80:60:4d:0f:a3:
                    53:ca:43:11:e3:3e:f1:19:40:bd:6b:6e:67:c7:44:
                    29:87:ea:94:55:15:c4:9e:a4:97:41:b8:6d:fc:2e:
                    60:87:db:89:6b:70:b9:0b:77:d8:04:36:b4:56:84:
                    4e:d9:36:4d:a0:7c:59:09:01:55:c4:cb:bf:48:cd:
                    d9:11:5b:2b:b4:b3:b0:8b:99:af:46:d2:44:ff:a4:
                    c5:b7:a6:38:0c:35:b3:99:3e:26:20:ac:06:03:4e:
                    d2:d9:ae:90:fe:d4:be:64:6a:eb:ee:02:92:43:b5:
                    d8:02:82:4d:ca:09:ba:75:47:f7:47:96:11:fe:83:
                    e4:d9:da:78:b7:fc:ea:70:46:43:ec:8f:6a:de:5d:
                    b0:56:b1:8e:6b:47:db:28:18:78:c7:2d:4b:22:7d:
                    99:45:bc:fe:9f:37:31:d1:22:4d:35:4f:71:63:6a:
                    a1:d5:04:47:27:de:ad:fe:fb:d0:6e:cb:55:c8:fa:
                    4f:9b:71:11:b6:6d:ae:ea:1d:41:6a:80:5f:6f:6c:
                    6f:64:06:b8:65:75:43:3e:02:05:85:5a:aa:3e:e1:
                    7e:90:e5:16:11:c6:78:a7:2f:e4:84:15:13:5e:bf:
                    53:6f:dc:65:3d:e2:9f:a3:8b:39:af:15:ef:2e:a2:
                    c8:ad:f7:66:9e:d1:c0:2f:b6:32:01:02:35:15:03:
                    54:da:fa:a2:5d:d8:33:9c:76:3e:be:7d:30:15:64:
                    95:bb:4e:ca:0d:08:6a:99:25:ee:9e:57:4e:d3:87:
                    ed:30:1e:e9:9c:bc:9e:ce:21:b5:bd:49:fb:bd:a1:
                    a7:4d:fc:2d:53:5b:95:1a:63:30:83:c6:6c:52:11:
                    a3:5e:ef
                Exponent: 65537 (0x10001)
        X509v3 extensions:
            X509v3 Subject Key Identifier: 
                CB:C0:D7:BF:70:FC:35:C4:1F:BB:C9:1C:99:E9:D6:1E:56:B2:18:83
            X509v3 Authority Key Identifier: 
                keyid:79:1C:C7:47:39:3A:A4:C0:EF:3E:EA:62:54:9A:DE:DA:DF:F4:F5:FA

            X509v3 Basic Constraints: critical
                CA:TRUE
            X509v3 Key Usage: 
                Certificate Sign, CRL Sign
    Signature Algorithm: sha256WithRSAEncryption
         10:e9:59:21:7c:1c:c3:94:bf:8b:e1:70:bf:54:cb:ca:46:33:
         cf:54:8b:23:ae:16:ea:94:7d:8e:73:d7:76:c0:ab:36:84:32:
         b6:b2:e5:bb:cd:e9:01:85:c6:d4:6c:12:e4:c3:5b:c0:87:fc:
         10:02:77:7a:41:b4:ec:b4:16:a4:26:63:ff:d4:f9:4d:ab:9a:
         98:0b:f1:0f:af:84:39:bd:cf:e5:dc:25:f7:58:b6:88:bc:1e:
         bb:af:40:63:d4:1c:6d:85:a2:8d:8a:32:b5:1b:5b:8e:62:3e:
         0a:ea:3f:b4:c1:2a:81:0c:00:5e:3d:ad:c4:5e:de:e9:47:6e:
         83:14:aa:1d:39:36:cb:bc:41:b5:3c:7e:86:e6:6c:df:60:60:
         c6:39:46:91:ba:97:88:40:d8:6f:3b:db:e9:3b:4c:2c:e5:58:
         9e:95:2f:c4:2f:62:a1:de:f0:2a:2d:5d:fe:10:62:cd:a7:22:
         f8:63:98:e0:6e:ab:1b:ac:9b:57:fa:2e:36:20:89:96:fe:1f:
         84:54:72:8c:d7:7a:11:17:d5:8b:ac:b1:c1:20:9f:e7:5c:e7:
         fa:5c:1f:30:c8:66:55:e1:63:f2:8d:31:08:65:1b:82:85:42:
         22:9d:ea:32:f8:80:60:a5:95:5e:af:0e:c4:e1:f8:58:44:8f:
         17:c0:91:9d:e5:95:2c:3f:80:28:70:f4:d3:a5:11:8a:47:e0:
         95:74:4e:15:39:9a:4e:3a:9e:8f:da:87:3a:bc:a3:0f:1b:f4:
         3e:67:bd:a4:59:39:d9:69:74:53:69:a2:06:36:35:68:b5:3c:
         2f:36:0a:d7:75:84:20:13:99:7a:42:79:1b:33:a3:94:33:96:
         7b:3c:4d:59:1a:b5:e5:67:e8:e0:63:39:fe:78:be:69:43:01:
         f9:4d:4c:f0:81:f9:3f:62:ce:a7:21:57:fb:b6:11:31:08:5f:
         dd:54:63:7d:e6:88:88:c0:32:62:c1:cb:19:92:9e:b5:2f:c5:
         5e:65:59:2f:1c:36:b5:4a:9b:50:f9:c8:69:a9:96:fe:f0:66:
         2c:eb:c7:0d:b8:0a:d0:10:5b:7b:e0:64:13:2d:a4:fc:98:fb:
         f6:40:8d:8c:ec:f0:14:06:e8:c6:b3:7e:c5:d1:de:d5:bc:df:
         42:d9:93:4d:d1:44:a9:ef:f4:e4:e3:42:8c:b7:0a:0d:b2:b6:
         95:88:61:8a:72:a3:2c:e8:7d:39:e4:20:b6:e1:e3:ba:93:91:
         39:42:56:7e:95:9c:fb:ff:8c:69:78:4e:a6:95:51:ff:19:4e:
         15:5e:d5:6b:03:75:90:d6:a4:4d:91:77:d4:fa:74:5e:ae:ee:
         84:76:28:b8:3e:56:65:3d
-----BEGIN CERTIFICATE-----
MIIFpzCCA4+gAwIBAgICEAAwDQYJKoZIhvcNAQELBQAwaTELMAkGA1UEBhMCU0Ux
FTATBgNVBAgMDEludGVybWVkaWF0ZTEVMBMGA1UECgwMSW50ZXJtZWRpYXRlMRUw
EwYDVQQLDAxJbnRlcm1lZGlhdGUxFTATBgNVBAMMDEludGVybWVkaWF0ZTAeFw0x
ODEwMDQxMTAxMjZaFw0yODEwMDExMTAxMjZaMGIxCzAJBgNVBAYTAlNFMQ8wDQYD
VQQIDAZFdmlsQ0ExDzANBgNVBAcMBkV2aWxDQTEPMA0GA1UECgwGRXZpbENBMQ8w
DQYDVQQLDAZFdmlsQ0ExDzANBgNVBAMMBkV2aWxDQTCCAiIwDQYJKoZIhvcNAQEB
BQADggIPADCCAgoCggIBAMyQu5ztZHGNytjhouYSXfCGyCw/XRjCpPmarlt0/c1Y
1XSOQqHDXwLu9Q8G+/MdleojuF4hWrfJJtBQkIWOI4aQ3N4dWr31yRvez/XiN8FI
UrPg8MNnAh93G9RoP82KifMK5CDIgGNMOFBvuU4WzhxL2HXmHoizCcqz2CY02FSh
hZUqorEf/en0Zd2E+B9FuU5UcqM0Fd+zxIvBgPCuAU6EeHbj88oougja1kQm+WQF
3LKZFK2yZ66soRBDJ4BgTQ+jU8pDEeM+8RlAvWtuZ8dEKYfqlFUVxJ6kl0G4bfwu
YIfbiWtwuQt32AQ2tFaETtk2TaB8WQkBVcTLv0jN2RFbK7SzsIuZr0bSRP+kxbem
OAw1s5k+JiCsBgNO0tmukP7UvmRq6+4CkkO12AKCTcoJunVH90eWEf6D5NnaeLf8
6nBGQ+yPat5dsFaxjmtH2ygYeMctSyJ9mUW8/p83MdEiTTVPcWNqodUERyferf77
0G7LVcj6T5txEbZtruodQWqAX29sb2QGuGV1Qz4CBYVaqj7hfpDlFhHGeKcv5IQV
E16/U2/cZT3in6OLOa8V7y6iyK33Zp7RwC+2MgECNRUDVNr6ol3YM5x2Pr59MBVk
lbtOyg0Iapkl7p5XTtOH7TAe6Zy8ns4htb1J+72hp038LVNblRpjMIPGbFIRo17v
AgMBAAGjYDBeMB0GA1UdDgQWBBTLwNe/cPw1xB+7yRyZ6dYeVrIYgzAfBgNVHSME
GDAWgBR5HMdHOTqkwO8+6mJUmt7a3/T1+jAPBgNVHRMBAf8EBTADAQH/MAsGA1Ud
DwQEAwIBBjANBgkqhkiG9w0BAQsFAAOCAgEAEOlZIXwcw5S/i+Fwv1TLykYzz1SL
I64W6pR9jnPXdsCrNoQytrLlu83pAYXG1GwS5MNbwIf8EAJ3ekG07LQWpCZj/9T5
TauamAvxD6+EOb3P5dwl91i2iLweu69AY9QcbYWijYoytRtbjmI+Cuo/tMEqgQwA
Xj2txF7e6UdugxSqHTk2y7xBtTx+huZs32BgxjlGkbqXiEDYbzvb6TtMLOVYnpUv
xC9iod7wKi1d/hBizaci+GOY4G6rG6ybV/ouNiCJlv4fhFRyjNd6ERfVi6yxwSCf
51zn+lwfMMhmVeFj8o0xCGUbgoVCIp3qMviAYKWVXq8OxOH4WESPF8CRneWVLD+A
KHD006URikfglXROFTmaTjqej9qHOryjDxv0Pme9pFk52Wl0U2miBjY1aLU8LzYK
13WEIBOZekJ5GzOjlDOWezxNWRq15Wfo4GM5/ni+aUMB+U1M8IH5P2LOpyFX+7YR
MQhf3VRjfeaIiMAyYsHLGZKetS/FXmVZLxw2tUqbUPnIaamW/vBmLOvHDbgK0BBb
e+BkEy2k/Jj79kCNjOzwFAboxrN+xdHe1bzfQtmTTdFEqe/05ONCjLcKDbK2lYhh
inKjLOh9OeQgtuHjupOROUJWfpWc+/+MaXhOppVR/xlOFV7VawN1kNakTZF31Pp0
Xq7uhHYouD5WZT0=
-----END CERTIFICATE-----
