Certificate:
    Data:
        Version: 3 (0x2)
        Serial Number: 4096 (0x1000)
    Signature Algorithm: sha256WithRSAEncryption
        Issuer: C=SE, ST=Intermediate, O=Intermediate, OU=Intermediate, CN=Intermediate
        Validity
            Not Before: Oct  3 16:47:00 2018 GMT
            Not After : Sep 30 16:47:00 2028 GMT
        Subject: C=SE, ST=EvilServer, L=EvilServer, O=EvilServer, OU=EvilServer, CN=EvilServer
        Subject Public Key Info:
            Public Key Algorithm: rsaEncryption
                Public-Key: (4096 bit)
                Modulus:
                    00:cd:ba:9f:b1:1c:7e:22:b3:af:8f:2c:d2:85:ff:
                    1e:94:b7:e6:ea:ca:b2:4c:03:19:29:9a:32:ae:64:
                    bc:a8:42:4c:4d:3d:39:27:d8:2f:c0:c0:1b:ee:94:
                    4d:b8:d5:b0:7d:e3:25:c5:31:b8:69:16:01:cd:37:
                    9e:d0:2e:a7:0e:82:55:1c:50:fa:03:2f:fe:08:79:
                    12:17:bb:9a:5a:cd:0d:39:4a:07:fc:3e:c6:bc:b3:
                    fe:ad:4e:80:29:5a:90:87:a1:09:34:fc:6d:a3:a2:
                    42:7f:0a:e4:e8:08:8b:07:aa:9d:a1:ac:37:d4:0e:
                    71:ac:1e:54:30:92:fb:cb:57:46:1f:3b:ae:e7:e7:
                    88:51:9e:a0:c1:87:eb:d9:b0:2c:83:23:1a:ac:da:
                    c6:08:48:f5:e4:a0:a8:4d:a8:6d:c2:84:d7:a3:3f:
                    9e:27:23:ba:77:df:60:2f:f1:20:8d:24:e4:22:ca:
                    cd:db:83:7b:f2:86:08:ed:bc:89:2c:5f:2a:a5:c5:
                    be:fe:38:e9:5c:e3:27:4b:8b:2f:6b:79:52:04:7e:
                    98:bf:a2:81:0a:d9:a7:06:1b:42:8e:00:7b:5a:66:
                    af:aa:ea:57:5d:e8:36:f6:7d:e8:ec:0a:52:34:2d:
                    11:cc:e8:2f:e9:57:a6:bc:0e:8e:7d:45:31:28:f1:
                    b1:e0:35:aa:ce:a5:40:ba:5f:19:ac:04:00:6b:b9:
                    29:86:b8:44:9b:63:54:7b:10:e0:f6:95:74:31:19:
                    23:98:e3:6e:55:f6:7c:33:d0:a7:12:ac:da:3e:06:
                    a4:e9:98:41:a0:7f:0f:42:08:e1:94:18:ce:87:e2:
                    bc:15:50:05:50:25:61:60:52:f3:3c:32:df:9b:78:
                    e4:99:07:e7:9d:7b:41:af:99:0b:27:b8:68:8f:5a:
                    ad:23:53:3f:e3:ee:3e:93:e2:3b:ba:14:d0:a7:0f:
                    60:dd:f3:6b:e9:64:91:d7:5f:9f:8d:28:98:f9:f4:
                    55:6b:ed:c6:64:0f:55:fd:9c:f5:27:dd:4b:24:f9:
                    da:6a:f2:9d:b4:ae:57:d1:ee:49:3e:2d:98:c4:d7:
                    3f:cd:b5:35:c2:e0:52:b2:b5:03:04:c5:9e:e9:75:
                    ce:ec:c7:c1:c9:2d:23:e4:25:db:ae:5b:2d:89:f4:
                    ac:f1:12:cf:86:29:11:fa:d7:af:c7:9a:6e:d3:88:
                    ba:4f:29:94:36:3a:22:31:28:10:a3:02:32:bf:b1:
                    d2:bb:ed:81:36:04:46:b8:2c:37:78:1a:a7:1e:4a:
                    ae:b3:c8:c8:b0:63:45:09:55:e0:1f:ba:ee:f2:3a:
                    82:da:e7:25:70:71:b2:a3:c5:a1:4b:19:03:87:29:
                    85:b8:73
                Exponent: 65537 (0x10001)
        X509v3 extensions:
            X509v3 Subject Key Identifier: 
                17:49:AA:01:F6:25:85:23:3F:A6:7A:43:D3:97:2A:F8:74:27:89:A0
            X509v3 Authority Key Identifier: 
                keyid:DC:99:4E:EE:8A:5C:75:D3:C7:5E:03:1E:73:57:F2:C4:C5:89:FD:70

            X509v3 Basic Constraints: critical
                CA:TRUE
            X509v3 Key Usage: 
                Certificate Sign, CRL Sign
    Signature Algorithm: sha256WithRSAEncryption
         8a:47:e7:4d:59:0f:86:ec:78:93:f8:01:ae:5f:21:37:82:13:
         91:e1:9e:b8:92:dc:d0:33:9c:df:2e:83:e2:d4:e5:3a:7e:b6:
         1b:71:f8:1f:50:0c:7e:bb:0b:81:78:ac:72:f3:93:b1:f0:ab:
         68:6c:09:88:64:17:d1:5a:f7:c5:27:3b:86:56:a1:37:b7:12:
         c4:f2:0e:af:4e:e4:56:51:aa:94:29:1d:6a:18:e4:f7:93:90:
         6e:0a:b6:d2:a9:53:aa:f7:db:e7:a6:cb:33:97:ac:69:d3:03:
         85:ba:6b:4f:ca:b6:b5:3d:cc:d3:68:81:2f:64:b8:e8:95:41:
         3b:22:60:c5:47:f9:dc:2e:95:fb:0f:6a:5a:88:4a:a3:9b:3b:
         32:bd:5f:03:63:01:1b:3e:a9:92:b3:ea:da:0c:b6:51:1f:98:
         cb:d5:dc:39:82:a6:2d:5b:cb:eb:ec:65:17:fa:05:29:a0:c4:
         42:b0:b3:8e:d2:84:d2:be:5d:32:ae:76:d8:17:16:85:b6:21:
         9d:b4:99:d9:44:27:21:df:e7:2c:e6:86:f3:3b:85:fc:21:65:
         39:32:30:2e:c8:ad:2c:e9:3f:18:bb:39:ab:58:8c:3a:95:75:
         dd:f8:e1:b4:3b:63:53:3f:d4:7e:03:5e:0c:c0:56:88:66:61:
         b8:36:39:df:b4:27:58:ca:21:fc:a8:d9:87:1a:1a:bd:38:1b:
         38:30:93:1b:13:9f:91:e0:62:7b:d3:5f:9d:c3:05:c7:bb:a4:
         87:53:bf:1a:6b:54:5a:5d:32:00:25:f7:6d:e7:4c:a1:14:21:
         5a:7b:03:28:38:4b:76:73:25:cb:5b:ff:dd:02:3c:cc:95:ea:
         c4:c0:6d:2f:ef:1d:33:3b:39:8a:d6:a3:d6:48:64:d6:38:9f:
         ce:d0:d4:f1:b4:06:2d:f0:94:5f:9a:fc:aa:58:31:8a:d2:cd:
         16:5f:06:ec:32:89:15:75:ca:75:27:3b:9a:1e:28:a6:f5:d8:
         14:13:8d:d2:a9:f0:8f:e3:56:13:30:96:02:72:6f:16:c9:95:
         0c:e5:5e:32:12:19:08:16:7a:f0:fc:17:e2:5b:2a:99:ca:cf:
         54:e3:2a:4a:91:b8:3f:1e:20:d6:58:21:71:04:7c:2a:3c:7c:
         8e:12:c7:32:e0:47:17:97:9a:97:03:1b:4e:ea:61:d6:ee:25:
         82:5f:07:99:c9:7f:3e:24:17:24:ed:a9:8c:1a:50:e8:88:0e:
         65:78:e2:3c:0d:0a:f9:7f:84:af:a5:aa:95:25:04:bd:e8:30:
         64:71:76:0f:82:04:9c:99:9f:63:ca:5b:13:04:f4:5d:f4:ec:
         5e:5c:8c:df:52:d6:06:3d
-----BEGIN CERTIFICATE-----
MIIFuzCCA6OgAwIBAgICEAAwDQYJKoZIhvcNAQELBQAwaTELMAkGA1UEBhMCU0Ux
FTATBgNVBAgMDEludGVybWVkaWF0ZTEVMBMGA1UECgwMSW50ZXJtZWRpYXRlMRUw
EwYDVQQLDAxJbnRlcm1lZGlhdGUxFTATBgNVBAMMDEludGVybWVkaWF0ZTAeFw0x
ODEwMDMxNjQ3MDBaFw0yODA5MzAxNjQ3MDBaMHYxCzAJBgNVBAYTAlNFMRMwEQYD
VQQIDApFdmlsU2VydmVyMRMwEQYDVQQHDApFdmlsU2VydmVyMRMwEQYDVQQKDApF
dmlsU2VydmVyMRMwEQYDVQQLDApFdmlsU2VydmVyMRMwEQYDVQQDDApFdmlsU2Vy
dmVyMIICIjANBgkqhkiG9w0BAQEFAAOCAg8AMIICCgKCAgEAzbqfsRx+IrOvjyzS
hf8elLfm6sqyTAMZKZoyrmS8qEJMTT05J9gvwMAb7pRNuNWwfeMlxTG4aRYBzTee
0C6nDoJVHFD6Ay/+CHkSF7uaWs0NOUoH/D7GvLP+rU6AKVqQh6EJNPxto6JCfwrk
6AiLB6qdoaw31A5xrB5UMJL7y1dGHzuu5+eIUZ6gwYfr2bAsgyMarNrGCEj15KCo
TahtwoTXoz+eJyO6d99gL/EgjSTkIsrN24N78oYI7byJLF8qpcW+/jjpXOMnS4sv
a3lSBH6Yv6KBCtmnBhtCjgB7WmavqupXXeg29n3o7ApSNC0RzOgv6VemvA6OfUUx
KPGx4DWqzqVAul8ZrAQAa7kphrhEm2NUexDg9pV0MRkjmONuVfZ8M9CnEqzaPgak
6ZhBoH8PQgjhlBjOh+K8FVAFUCVhYFLzPDLfm3jkmQfnnXtBr5kLJ7hoj1qtI1M/
4+4+k+I7uhTQpw9g3fNr6WSR11+fjSiY+fRVa+3GZA9V/Zz1J91LJPnaavKdtK5X
0e5JPi2YxNc/zbU1wuBSsrUDBMWe6XXO7MfByS0j5CXbrlstifSs8RLPhikR+tev
x5pu04i6TymUNjoiMSgQowIyv7HSu+2BNgRGuCw3eBqnHkqus8jIsGNFCVXgH7ru
8jqC2uclcHGyo8WhSxkDhymFuHMCAwEAAaNgMF4wHQYDVR0OBBYEFBdJqgH2JYUj
P6Z6Q9OXKvh0J4mgMB8GA1UdIwQYMBaAFNyZTu6KXHXTx14DHnNX8sTFif1wMA8G
A1UdEwEB/wQFMAMBAf8wCwYDVR0PBAQDAgEGMA0GCSqGSIb3DQEBCwUAA4ICAQCK
R+dNWQ+G7HiT+AGuXyE3ghOR4Z64ktzQM5zfLoPi1OU6frYbcfgfUAx+uwuBeKxy
85Ox8KtobAmIZBfRWvfFJzuGVqE3txLE8g6vTuRWUaqUKR1qGOT3k5BuCrbSqVOq
99vnpsszl6xp0wOFumtPyra1PczTaIEvZLjolUE7ImDFR/ncLpX7D2paiEqjmzsy
vV8DYwEbPqmSs+raDLZRH5jL1dw5gqYtW8vr7GUX+gUpoMRCsLOO0oTSvl0yrnbY
FxaFtiGdtJnZRCch3+cs5obzO4X8IWU5MjAuyK0s6T8YuzmrWIw6lXXd+OG0O2NT
P9R+A14MwFaIZmG4NjnftCdYyiH8qNmHGhq9OBs4MJMbE5+R4GJ701+dwwXHu6SH
U78aa1RaXTIAJfdt50yhFCFaewMoOEt2cyXLW//dAjzMlerEwG0v7x0zOzmK1qPW
SGTWOJ/O0NTxtAYt8JRfmvyqWDGK0s0WXwbsMokVdcp1JzuaHiim9dgUE43SqfCP
41YTMJYCcm8WyZUM5V4yEhkIFnrw/BfiWyqZys9U4ypKkbg/HiDWWCFxBHwqPHyO
Escy4EcXl5qXAxtO6mHW7iWCXweZyX8+JBck7amMGlDoiA5leOI8DQr5f4SvpaqV
JQS96DBkcXYPggScmZ9jylsTBPRd9OxeXIzfUtYGPQ==
-----END CERTIFICATE-----
