Certificate:
    Data:
        Version: 3 (0x2)
        Serial Number: 4096 (0x1000)
    Signature Algorithm: sha256WithRSAEncryption
        Issuer: C=SE, ST=Root, L=Root, O=Root, OU=Root, CN=Root
        Validity
            Not Before: Oct  3 16:43:55 2018 GMT
            Not After : Sep 30 16:43:55 2028 GMT
        Subject: C=SE, ST=Intermediate, O=Intermediate, OU=Intermediate, CN=Intermediate
        Subject Public Key Info:
            Public Key Algorithm: rsaEncryption
                Public-Key: (4096 bit)
                Modulus:
                    00:be:68:8f:7f:9d:86:ee:5e:65:ef:43:25:8f:e6:
                    90:15:68:18:36:32:e7:4c:f1:3f:83:54:fd:1a:bb:
                    0f:99:6e:05:6c:77:da:28:af:5f:9d:54:e0:ca:3c:
                    85:30:31:09:41:d6:a2:84:0f:2c:23:aa:c7:aa:62:
                    7f:3c:c3:fd:0b:bc:fc:f9:ec:44:cb:c0:33:46:b9:
                    6a:95:f5:e2:7a:ab:c4:32:8e:2b:92:85:33:05:0c:
                    a1:7e:f4:99:03:c2:fb:38:df:f2:3a:1c:da:20:05:
                    24:35:b8:61:1e:95:51:e8:0a:61:e0:17:55:46:0d:
                    94:12:86:3a:91:3b:19:2d:a6:da:18:da:a1:4a:94:
                    74:a9:6a:f7:89:82:d3:36:91:57:ef:dd:60:23:5a:
                    71:db:36:c4:1b:25:15:89:5f:d8:2d:44:7e:34:56:
                    b4:d8:de:4e:d5:e0:35:64:d5:f3:de:aa:df:da:be:
                    de:88:8c:4b:f5:90:1f:6f:e4:76:e6:d2:aa:92:60:
                    fa:1a:b2:10:72:1e:29:61:db:3c:6e:7e:c2:1b:a5:
                    79:fa:60:41:9d:e9:85:c9:9b:cb:92:8f:0e:9c:39:
                    3a:19:bc:d6:a9:51:18:c2:3f:d6:ba:56:52:39:1b:
                    34:a4:23:ad:10:dd:43:eb:a2:a8:7f:2d:dc:12:c6:
                    ae:4c:62:33:c9:28:af:cd:21:36:f9:6a:0a:bc:7b:
                    9f:4d:11:a6:ea:e4:ec:7e:1f:d8:9e:e5:be:3d:cf:
                    55:48:f1:01:fc:8a:44:b9:67:29:98:46:99:ed:3c:
                    fc:45:29:bf:79:58:5c:76:b2:62:6d:81:0b:a6:2c:
                    cf:6d:4d:9f:89:9e:b8:3d:48:4d:e7:04:38:ff:7b:
                    b7:e5:27:47:45:74:8e:4c:1a:a5:01:d5:f4:ce:d5:
                    c1:9c:55:47:73:0e:df:69:45:99:08:1f:9c:b9:89:
                    a3:7e:d4:72:83:c3:2e:20:5c:53:57:1e:66:75:ed:
                    0d:70:28:30:f7:80:88:72:15:93:7f:c9:a7:71:93:
                    11:9d:3d:6a:e8:50:fd:b8:dd:e4:ec:bb:31:0c:81:
                    3b:22:68:60:f4:7c:ce:ab:ef:ed:11:0f:fb:7e:f5:
                    22:10:7c:d3:a9:74:92:52:41:b9:45:7e:d0:90:8d:
                    4c:27:05:45:bb:cd:f2:01:8e:ec:1c:13:ce:5a:6d:
                    a5:ec:5b:f8:3a:ce:24:81:13:c8:49:59:f0:83:49:
                    31:f6:cf:6c:30:a6:57:8f:f2:2c:b9:9c:84:23:64:
                    88:1e:75:68:ff:c9:dc:f2:14:df:17:d0:e2:df:76:
                    72:f6:d6:6a:7f:c6:25:bb:c0:0b:7a:f9:e3:87:c0:
                    9d:ec:9d
                Exponent: 65537 (0x10001)
        X509v3 extensions:
            X509v3 Subject Key Identifier: 
                DC:99:4E:EE:8A:5C:75:D3:C7:5E:03:1E:73:57:F2:C4:C5:89:FD:70
            X509v3 Authority Key Identifier: 
                keyid:73:40:2A:49:4B:AA:69:06:CF:45:F3:24:A6:B6:76:6A:10:97:74:D6

            X509v3 Key Usage: 
                Certificate Sign, CRL Sign
            X509v3 Basic Constraints: critical
                CA:TRUE, pathlen:0
    Signature Algorithm: sha256WithRSAEncryption
         87:44:2d:8e:24:27:5a:f3:8d:38:7c:b1:82:a6:11:07:53:e3:
         b9:66:d5:b0:46:84:61:5b:5c:32:aa:fe:1a:e9:80:33:18:cb:
         4d:03:61:cc:9b:7b:5a:54:38:f3:b7:39:6f:cc:f6:a9:5c:85:
         e4:7f:2e:2b:3f:1c:79:d8:36:9b:51:1a:01:48:e0:46:42:55:
         b1:7c:7b:68:a3:5d:40:07:66:1a:33:55:e4:97:59:6f:8d:3e:
         55:e1:b1:9e:58:f1:4b:80:20:6e:15:5d:ca:5a:25:f8:8b:79:
         78:f7:9e:18:d3:fc:29:5a:8f:e3:ab:42:55:80:88:a8:04:fd:
         bc:27:0b:55:e2:c1:ef:b6:22:a9:4d:dd:db:78:58:91:ea:a5:
         df:b7:c1:19:c1:08:46:37:3f:c7:05:d3:bd:32:e4:f3:82:60:
         3a:92:f6:a8:69:d5:bb:cc:b9:8d:2f:39:fb:bd:53:11:12:09:
         2d:83:dd:30:43:f8:bf:c1:6d:05:43:74:3e:0e:69:9f:38:1a:
         ff:1c:a2:01:ba:08:d6:43:93:12:af:7e:90:49:7e:8f:84:32:
         64:56:5d:bf:10:75:d3:24:df:14:59:83:e0:0b:17:16:79:5c:
         5a:0a:15:5e:dc:09:b3:db:2b:ce:83:c4:78:b9:b6:71:24:a7:
         72:ab:e5:47:43:af:d5:5a:00:27:9c:fb:0d:b7:ec:3e:5a:7c:
         de:cb:48:24:1c:8f:eb:5b:b1:b5:dd:5a:32:4f:96:18:cc:7a:
         2f:c6:5b:75:97:73:58:9a:03:61:bd:96:71:53:82:7b:f4:05:
         11:c5:21:46:af:a8:64:dc:b1:81:e1:e6:ad:0a:0a:7c:21:6b:
         a0:2b:27:13:54:e5:9b:fa:10:54:69:ca:f9:e4:2f:87:69:46:
         56:85:19:f6:06:29:14:e9:41:61:58:d1:8e:ac:8a:51:f4:c0:
         39:33:4c:db:a3:a8:35:b2:9d:fa:57:c2:46:c5:52:e4:eb:93:
         d7:c5:13:86:e7:aa:52:df:1a:11:be:b4:0b:33:55:2a:8a:62:
         cb:b3:78:98:58:74:8e:34:90:19:a0:45:f5:57:8e:b9:e0:25:
         3e:37:94:18:c1:65:de:c8:dd:b9:9c:66:4c:a2:d3:bb:c4:f7:
         40:8b:6c:b1:fb:64:1e:4f:8c:68:e5:52:89:e2:8b:d6:23:06:
         6b:81:f4:38:0d:fd:99:e6:f4:43:d9:a7:71:6c:07:f3:b8:9a:
         e8:32:7d:a3:78:7b:86:a5:f3:76:32:96:e1:dc:cd:4d:eb:52:
         18:6d:56:f0:fb:88:f8:be:63:d8:bc:cb:b0:31:05:f6:e4:80:
         e7:ac:5d:5e:34:61:25:6a
-----BEGIN CERTIFICATE-----
MIIFoDCCA4igAwIBAgICEAAwDQYJKoZIhvcNAQELBQAwWDELMAkGA1UEBhMCU0Ux
DTALBgNVBAgMBFJvb3QxDTALBgNVBAcMBFJvb3QxDTALBgNVBAoMBFJvb3QxDTAL
BgNVBAsMBFJvb3QxDTALBgNVBAMMBFJvb3QwHhcNMTgxMDAzMTY0MzU1WhcNMjgw
OTMwMTY0MzU1WjBpMQswCQYDVQQGEwJTRTEVMBMGA1UECAwMSW50ZXJtZWRpYXRl
MRUwEwYDVQQKDAxJbnRlcm1lZGlhdGUxFTATBgNVBAsMDEludGVybWVkaWF0ZTEV
MBMGA1UEAwwMSW50ZXJtZWRpYXRlMIICIjANBgkqhkiG9w0BAQEFAAOCAg8AMIIC
CgKCAgEAvmiPf52G7l5l70Mlj+aQFWgYNjLnTPE/g1T9GrsPmW4FbHfaKK9fnVTg
yjyFMDEJQdaihA8sI6rHqmJ/PMP9C7z8+exEy8AzRrlqlfXieqvEMo4rkoUzBQyh
fvSZA8L7ON/yOhzaIAUkNbhhHpVR6Aph4BdVRg2UEoY6kTsZLabaGNqhSpR0qWr3
iYLTNpFX791gI1px2zbEGyUViV/YLUR+NFa02N5O1eA1ZNXz3qrf2r7eiIxL9ZAf
b+R25tKqkmD6GrIQch4pYds8bn7CG6V5+mBBnemFyZvLko8OnDk6GbzWqVEYwj/W
ulZSORs0pCOtEN1D66Kofy3cEsauTGIzySivzSE2+WoKvHufTRGm6uTsfh/YnuW+
Pc9VSPEB/IpEuWcpmEaZ7Tz8RSm/eVhcdrJibYELpizPbU2fiZ64PUhN5wQ4/3u3
5SdHRXSOTBqlAdX0ztXBnFVHcw7faUWZCB+cuYmjftRyg8MuIFxTVx5mde0NcCgw
94CIchWTf8mncZMRnT1q6FD9uN3k7LsxDIE7Imhg9HzOq+/tEQ/7fvUiEHzTqXSS
UkG5RX7QkI1MJwVFu83yAY7sHBPOWm2l7Fv4Os4kgRPISVnwg0kx9s9sMKZXj/Is
uZyEI2SIHnVo/8nc8hTfF9Di33Zy9tZqf8Ylu8ALevnjh8Cd7J0CAwEAAaNjMGEw
HQYDVR0OBBYEFNyZTu6KXHXTx14DHnNX8sTFif1wMB8GA1UdIwQYMBaAFHNAKklL
qmkGz0XzJKa2dmoQl3TWMAsGA1UdDwQEAwIBBjASBgNVHRMBAf8ECDAGAQH/AgEA
MA0GCSqGSIb3DQEBCwUAA4ICAQCHRC2OJCda8404fLGCphEHU+O5ZtWwRoRhW1wy
qv4a6YAzGMtNA2HMm3taVDjztzlvzPapXIXkfy4rPxx52DabURoBSOBGQlWxfHto
o11AB2YaM1Xkl1lvjT5V4bGeWPFLgCBuFV3KWiX4i3l4954Y0/wpWo/jq0JVgIio
BP28JwtV4sHvtiKpTd3beFiR6qXft8EZwQhGNz/HBdO9MuTzgmA6kvaoadW7zLmN
Lzn7vVMREgktg90wQ/i/wW0FQ3Q+DmmfOBr/HKIBugjWQ5MSr36QSX6PhDJkVl2/
EHXTJN8UWYPgCxcWeVxaChVe3Amz2yvOg8R4ubZxJKdyq+VHQ6/VWgAnnPsNt+w+
Wnzey0gkHI/rW7G13VoyT5YYzHovxlt1l3NYmgNhvZZxU4J79AURxSFGr6hk3LGB
4eatCgp8IWugKycTVOWb+hBUacr55C+HaUZWhRn2BikU6UFhWNGOrIpR9MA5M0zb
o6g1sp36V8JGxVLk65PXxROG56pS3xoRvrQLM1UqimLLs3iYWHSONJAZoEX1V465
4CU+N5QYwWXeyN25nGZMotO7xPdAi2yx+2QeT4xo5VKJ4ovWIwZrgfQ4Df2Z5vRD
2adxbAfzuJroMn2jeHuGpfN2Mpbh3M1N61IYbVbw+4j4vmPYvMuwMQX25IDnrF1e
NGElag==
-----END CERTIFICATE-----
