Certificate:
    Data:
        Version: 3 (0x2)
        Serial Number: 4096 (0x1000)
    Signature Algorithm: sha256WithRSAEncryption
        Issuer: C=SE, ST=EvilCA, L=EvilCA, O=EvilCA, OU=EvilCA, CN=EvilCA
        Validity
            Not Before: Oct  8 08:33:05 2018 GMT
            Not After : Oct  5 08:33:05 2028 GMT
        Subject: C=SE, ST=EvilServer, L=EvilServer, O=EvilServer, OU=EvilServer, CN=EvilServer
        Subject Public Key Info:
            Public Key Algorithm: rsaEncryption
                Public-Key: (4096 bit)
                Modulus:
                    00:c0:83:ab:c6:da:65:87:e7:92:f6:5c:46:52:69:
                    cf:b7:e5:1e:e6:1b:b8:d1:6e:ac:c7:24:a1:35:6d:
                    cd:bf:e8:bb:52:8b:cd:b5:92:67:da:37:c7:c3:7e:
                    6f:19:01:c7:ea:a8:ac:bc:6e:60:9b:44:7a:84:64:
                    98:43:99:27:73:8d:19:da:00:60:fc:eb:86:6b:d2:
                    67:ee:a3:4b:4b:45:40:71:2c:b5:64:27:a7:4e:df:
                    a3:f6:86:f6:9d:14:d1:60:c1:40:c0:6d:77:86:47:
                    2d:45:84:2a:0c:43:fb:18:e7:2c:f9:90:da:8a:87:
                    af:2d:79:51:9a:45:31:17:84:94:fd:02:be:ef:1a:
                    bd:10:a1:d4:b6:ae:b4:c2:8b:9e:49:7b:22:02:96:
                    a4:f1:a3:ab:df:5e:fd:ff:e4:c5:03:47:5e:ae:da:
                    54:71:f5:07:a5:0a:14:d1:42:19:73:a0:41:ee:fd:
                    95:80:57:d4:9e:45:02:64:40:48:3a:a7:6e:37:93:
                    df:f2:94:d9:b7:85:a9:8b:64:2e:7a:0e:8f:85:f8:
                    e9:93:d6:56:62:d5:ff:10:c7:17:f6:6e:09:16:67:
                    6e:76:ac:53:f3:7b:19:66:46:bf:79:9a:60:11:81:
                    4c:d3:3d:e4:61:92:de:83:c2:89:6b:a4:a9:47:74:
                    98:8c:e2:27:1e:4b:73:80:40:dd:1e:59:73:dd:ba:
                    50:c9:78:70:5f:81:26:ee:97:93:30:41:63:bd:e9:
                    0b:6e:e0:43:62:86:80:90:22:21:0c:43:ae:75:05:
                    78:b4:5c:b3:cb:61:2c:56:d3:dd:39:e3:87:a0:ef:
                    2a:3c:5a:c7:18:17:0b:1d:ea:bc:9a:49:60:19:e7:
                    6a:6e:b4:07:b6:1a:aa:3b:46:6c:70:86:dc:41:62:
                    d2:36:86:f1:59:fb:05:94:d1:d4:07:71:b5:6d:22:
                    26:fe:73:17:56:49:06:67:60:06:b8:c4:4b:22:5b:
                    0e:6a:5c:5c:9e:e1:29:79:a7:f0:c1:4b:10:d3:94:
                    a8:79:a9:5b:5e:5c:fb:36:f6:07:c9:ac:bf:8e:a0:
                    26:dd:09:96:70:fa:7b:ef:fc:8c:90:24:f4:0b:57:
                    74:e4:12:e9:08:98:e4:88:16:a5:b8:26:d6:ef:7e:
                    61:b8:57:df:3c:84:9b:81:3c:b6:ad:7b:8d:a2:7d:
                    94:38:41:38:4b:84:d6:2c:6b:a2:e4:9a:79:f4:46:
                    70:ef:95:6b:91:67:2c:f4:1d:0f:c1:fa:30:ca:45:
                    e0:3f:b6:37:77:b0:72:2b:bb:06:fd:19:f8:43:91:
                    31:03:d3:13:ee:45:96:48:d1:23:0f:c2:30:c9:0d:
                    ac:27:27
                Exponent: 65537 (0x10001)
        X509v3 extensions:
            X509v3 Basic Constraints: critical
                CA:FALSE
            X509v3 Key Usage: critical
                Digital Signature, Key Encipherment
            X509v3 Extended Key Usage: critical
                TLS Web Server Authentication
            X509v3 Subject Key Identifier: 
                03:C6:48:91:09:73:F5:DF:EF:B5:9D:A4:66:00:16:C3:E9:DB:99:EE
            X509v3 Authority Key Identifier: 
                keyid:B6:B4:75:66:18:B5:D2:4F:57:10:53:93:4F:CD:51:71:A4:27:84:7C

    Signature Algorithm: sha256WithRSAEncryption
         80:d7:4b:0f:45:a3:ac:02:7c:25:f6:c5:78:c1:77:b4:50:7e:
         4d:c3:c5:02:ec:c7:40:88:16:ff:31:59:f3:7c:ac:dc:ee:16:
         41:b1:aa:49:85:0f:64:ff:ac:f0:67:4e:9f:a2:62:56:28:19:
         a8:f9:9f:05:59:25:24:6c:79:38:b0:e5:c2:b1:b5:62:eb:aa:
         27:b5:3e:7e:f2:ba:23:97:75:76:0b:a8:f6:d2:1c:23:f7:14:
         18:bb:12:aa:80:89:20:70:26:ea:ec:c4:eb:2f:a5:8f:63:05:
         7a:3f:6b:6a:d3:ca:8c:41:94:83:e0:28:28:03:8f:44:6e:7d:
         68:8e:42:9d:16:71:51:1f:fb:9f:b6:75:19:ff:e6:c5:2e:82:
         12:ce:bd:de:e9:50:f5:c3:43:ea:73:d0:a1:2c:d5:26:22:1e:
         31:7f:77:aa:af:a3:0f:70:b5:bb:f6:5f:36:88:a4:18:1c:1e:
         70:1a:a4:e1:fd:aa:9d:c6:20:57:c5:a8:59:eb:da:8a:ef:aa:
         f0:29:68:4a:f7:f3:e1:fd:b6:23:6b:98:48:67:25:08:c6:b8:
         00:5c:93:11:f4:1a:23:fd:5e:c5:85:fa:8c:22:59:ae:55:5a:
         58:a0:f3:e3:9d:f1:cd:1f:25:c6:c2:d4:f0:e3:62:26:1f:b3:
         4e:13:5c:d9:4b:6e:1a:a0:44:69:85:36:5e:f4:cf:a6:41:04:
         d7:2f:69:e1:2b:36:cb:f3:50:28:fa:e2:d1:17:fe:16:cf:10:
         da:41:5a:79:17:c2:f2:26:92:cd:8d:3b:37:01:f6:aa:76:d1:
         a5:02:c6:d6:06:20:35:94:74:9d:f7:fa:cc:c9:c8:dc:bf:23:
         02:d0:4a:96:8c:43:f6:28:52:82:37:76:34:66:f4:77:ee:aa:
         f7:f6:9c:b4:e4:cf:c9:04:b3:6c:47:f6:18:d0:67:6e:5d:da:
         ca:c4:a0:b5:34:ca:74:65:41:43:a4:b5:b8:c3:a0:9e:56:b4:
         59:4c:ed:24:fb:dc:a0:74:8a:3d:9a:72:57:f9:d5:bc:f4:53:
         12:82:94:61:6e:c8:32:43:96:42:21:ce:c6:4b:a4:e6:50:e6:
         d1:c3:bc:3f:f3:52:f4:57:4c:2a:11:2d:d2:3c:c7:6e:6c:6c:
         62:7b:ac:a2:f4:e4:4e:b1:5a:5e:5d:ac:20:e3:c1:9b:07:18:
         ba:07:d0:c2:a7:eb:f2:01:47:0d:fd:83:9f:7a:df:8e:d5:b8:
         f6:94:f1:8e:05:d9:9b:c1:f4:3e:11:86:cb:ae:e2:e6:d1:a0:
         27:f6:d9:f3:f7:fc:9a:ec:4e:80:e2:fc:cd:f5:c2:09:a5:0f:
         cf:6e:89:7b:83:6b:52:64
-----BEGIN CERTIFICATE-----
MIIFzDCCA7SgAwIBAgICEAAwDQYJKoZIhvcNAQELBQAwYjELMAkGA1UEBhMCU0Ux
DzANBgNVBAgMBkV2aWxDQTEPMA0GA1UEBwwGRXZpbENBMQ8wDQYDVQQKDAZFdmls
Q0ExDzANBgNVBAsMBkV2aWxDQTEPMA0GA1UEAwwGRXZpbENBMB4XDTE4MTAwODA4
MzMwNVoXDTI4MTAwNTA4MzMwNVowdjELMAkGA1UEBhMCU0UxEzARBgNVBAgMCkV2
aWxTZXJ2ZXIxEzARBgNVBAcMCkV2aWxTZXJ2ZXIxEzARBgNVBAoMCkV2aWxTZXJ2
ZXIxEzARBgNVBAsMCkV2aWxTZXJ2ZXIxEzARBgNVBAMMCkV2aWxTZXJ2ZXIwggIi
MA0GCSqGSIb3DQEBAQUAA4ICDwAwggIKAoICAQDAg6vG2mWH55L2XEZSac+35R7m
G7jRbqzHJKE1bc2/6LtSi821kmfaN8fDfm8ZAcfqqKy8bmCbRHqEZJhDmSdzjRna
AGD864Zr0mfuo0tLRUBxLLVkJ6dO36P2hvadFNFgwUDAbXeGRy1FhCoMQ/sY5yz5
kNqKh68teVGaRTEXhJT9Ar7vGr0QodS2rrTCi55JeyIClqTxo6vfXv3/5MUDR16u
2lRx9QelChTRQhlzoEHu/ZWAV9SeRQJkQEg6p243k9/ylNm3hamLZC56Do+F+OmT
1lZi1f8Qxxf2bgkWZ252rFPzexlmRr95mmARgUzTPeRhkt6DwolrpKlHdJiM4ice
S3OAQN0eWXPdulDJeHBfgSbul5MwQWO96Qtu4ENihoCQIiEMQ651BXi0XLPLYSxW
090544eg7yo8WscYFwsd6ryaSWAZ52putAe2Gqo7RmxwhtxBYtI2hvFZ+wWU0dQH
cbVtIib+cxdWSQZnYAa4xEsiWw5qXFye4Sl5p/DBSxDTlKh5qVteXPs29gfJrL+O
oCbdCZZw+nvv/IyQJPQLV3TkEukImOSIFqW4JtbvfmG4V988hJuBPLate42ifZQ4
QThLhNYsa6Lkmnn0RnDvlWuRZyz0HQ/B+jDKReA/tjd3sHIruwb9GfhDkTED0xPu
RZZI0SMPwjDJDawnJwIDAQABo3gwdjAMBgNVHRMBAf8EAjAAMA4GA1UdDwEB/wQE
AwIFoDAWBgNVHSUBAf8EDDAKBggrBgEFBQcDATAdBgNVHQ4EFgQUA8ZIkQlz9d/v
tZ2kZgAWw+nbme4wHwYDVR0jBBgwFoAUtrR1Zhi10k9XEFOTT81RcaQnhHwwDQYJ
KoZIhvcNAQELBQADggIBAIDXSw9Fo6wCfCX2xXjBd7RQfk3DxQLsx0CIFv8xWfN8
rNzuFkGxqkmFD2T/rPBnTp+iYlYoGaj5nwVZJSRseTiw5cKxtWLrqie1Pn7yuiOX
dXYLqPbSHCP3FBi7EqqAiSBwJursxOsvpY9jBXo/a2rTyoxBlIPgKCgDj0RufWiO
Qp0WcVEf+5+2dRn/5sUughLOvd7pUPXDQ+pz0KEs1SYiHjF/d6qvow9wtbv2XzaI
pBgcHnAapOH9qp3GIFfFqFnr2orvqvApaEr38+H9tiNrmEhnJQjGuABckxH0GiP9
XsWF+owiWa5VWlig8+Od8c0fJcbC1PDjYiYfs04TXNlLbhqgRGmFNl70z6ZBBNcv
aeErNsvzUCj64tEX/hbPENpBWnkXwvImks2NOzcB9qp20aUCxtYGIDWUdJ33+szJ
yNy/IwLQSpaMQ/YoUoI3djRm9Hfuqvf2nLTkz8kEs2xH9hjQZ25d2srEoLU0ynRl
QUOktbjDoJ5WtFlM7ST73KB0ij2aclf51bz0UxKClGFuyDJDlkIhzsZLpOZQ5tHD
vD/zUvRXTCoRLdI8x25sbGJ7rKL05E6xWl5drCDjwZsHGLoH0MKn6/IBRw39g596
347VuPaU8Y4F2ZvB9D4Rhsuu4ubRoCf22fP3/JrsToDi/M31wgmlD89uiXuDa1Jk
-----END CERTIFICATE-----
