Certificate:
    Data:
        Version: 3 (0x2)
        Serial Number: 4096 (0x1000)
    Signature Algorithm: sha256WithRSAEncryption
        Issuer: C=SE, ST=Root, L=Root, O=Root, OU=Root, CN=Root
        Validity
            Not Before: Oct  8 08:20:21 2018 GMT
            Not After : Oct  5 08:20:21 2028 GMT
        Subject: C=SE, ST=EvilCA, L=EvilCA, O=EvilCA, OU=EvilCA, CN=EvilCA
        Subject Public Key Info:
            Public Key Algorithm: rsaEncryption
                Public-Key: (4096 bit)
                Modulus:
                    00:cc:b5:f1:74:14:fd:6d:29:17:5c:d7:3c:f1:ba:
                    93:a7:89:26:71:61:a9:12:dc:74:3d:d7:5d:a8:6d:
                    d0:01:fe:8f:91:ad:f7:45:a6:2a:19:ee:ba:82:73:
                    1a:1f:b6:4e:f4:e3:ad:15:0e:03:8f:f4:e5:6e:5a:
                    14:ac:48:1a:28:c8:99:9f:65:b4:7d:e1:3d:da:ec:
                    45:c1:18:b1:e0:9e:ac:3e:13:c2:80:47:c7:41:26:
                    24:71:c8:5c:c1:cb:dd:ca:9d:2b:e0:09:f0:cb:70:
                    b4:f7:91:20:43:4e:fb:6a:34:b7:3e:d1:ba:bf:07:
                    79:a6:78:96:5c:36:49:80:25:20:21:4d:97:5e:40:
                    11:c0:b2:c8:7d:68:4f:1c:db:07:f4:be:24:99:4b:
                    48:90:11:f1:b0:7e:75:05:06:09:7b:6f:ba:21:dd:
                    06:e7:44:0e:4c:21:02:40:e0:4f:e5:37:48:31:71:
                    a9:83:7c:82:cd:f2:16:67:24:38:fd:4f:14:62:01:
                    7f:c3:59:ca:da:39:83:43:05:c7:2d:36:55:17:73:
                    9e:3e:12:2e:07:2c:26:8f:2b:ae:d3:8d:3d:2c:bf:
                    4d:45:9d:24:cf:74:51:2e:12:89:9c:b9:ad:ca:89:
                    e9:ce:9d:d7:49:16:67:09:c9:b4:d0:39:7c:c7:ce:
                    27:eb:d3:f5:e3:be:33:cf:7d:bf:4a:72:20:63:a1:
                    ef:b9:6e:ee:4c:4e:3d:fd:4d:f7:73:06:6f:ad:72:
                    ef:a3:29:be:2b:8e:f1:69:15:81:2e:40:db:07:ae:
                    9d:1b:98:2e:17:b2:0d:ca:45:bd:57:ec:d9:83:7a:
                    32:d3:d6:74:71:c7:62:16:f9:df:57:41:d1:5c:c8:
                    9e:22:f9:b3:ce:fb:8a:b6:c4:db:98:9e:2f:ff:18:
                    62:43:0a:4a:59:cb:69:71:84:40:bc:a5:7d:b2:23:
                    6b:52:07:d6:46:da:93:48:49:cf:4d:db:ef:9b:e3:
                    d2:25:3d:fc:8f:a6:3e:17:b8:46:d0:82:d2:0b:00:
                    8c:8a:fd:cd:6a:29:3b:05:fa:6a:d1:99:e6:6b:ea:
                    fc:eb:82:00:e6:30:04:99:fc:54:df:ed:5c:24:5e:
                    4e:5b:4d:1c:cf:13:13:66:54:05:6e:57:45:f2:eb:
                    ad:e5:b6:eb:77:9b:89:9d:20:69:13:3c:53:fc:28:
                    ea:f5:9f:44:e0:77:81:5b:75:00:92:09:89:c6:33:
                    bb:e3:35:20:db:e0:03:8d:03:b8:a8:1e:97:37:da:
                    6c:d0:8e:c7:ad:d9:71:fb:6b:af:93:86:9f:95:db:
                    6f:f9:4a:90:bc:e5:7c:02:00:41:88:ba:7b:5d:34:
                    4d:d6:1d
                Exponent: 65537 (0x10001)
        X509v3 extensions:
            X509v3 Subject Key Identifier: 
                B6:B4:75:66:18:B5:D2:4F:57:10:53:93:4F:CD:51:71:A4:27:84:7C
            X509v3 Authority Key Identifier: 
                keyid:49:39:72:82:78:39:E8:60:AD:17:79:83:DB:65:B8:5C:E6:A7:84:B5

            X509v3 Key Usage: 
                Certificate Sign, CRL Sign
            X509v3 Basic Constraints: critical
                CA:TRUE, pathlen:0
    Signature Algorithm: sha256WithRSAEncryption
         9c:ce:52:41:db:ea:7e:33:ac:06:9a:cc:1d:3b:87:0f:bd:02:
         26:80:7c:97:d5:21:a4:f1:93:b0:41:5b:6d:97:91:a9:1e:54:
         5c:aa:d1:a4:75:05:bc:f9:bc:60:8d:4e:47:82:dd:68:08:be:
         f9:d3:ab:8b:60:bd:60:ab:ff:bd:09:d7:f2:f8:69:b9:f9:cb:
         4f:7e:55:38:5c:fa:44:ff:4a:bd:73:c6:f8:52:de:38:0f:17:
         bb:1d:66:fe:39:40:ee:05:c4:ec:1b:1a:8d:75:05:e4:02:82:
         4c:75:b7:2d:96:32:ec:64:2f:fb:62:81:94:fe:c8:74:af:01:
         97:74:52:34:06:ed:5f:e2:e8:bb:4b:5e:61:8f:21:97:7d:7a:
         7f:c3:c8:68:66:d8:61:e7:cf:04:e8:43:ee:ed:55:bb:5c:bf:
         f8:a0:23:41:a5:44:27:45:86:4b:b2:ad:85:83:aa:17:43:4d:
         4c:b7:31:74:43:02:da:ed:26:a0:27:ce:0b:d2:0a:e7:90:71:
         7e:49:b8:d4:d4:ac:88:73:16:cc:e4:f3:f2:71:9d:2d:db:96:
         5e:29:d2:bf:fb:05:0f:d9:81:52:64:93:d8:06:c7:a1:40:5c:
         57:28:5c:48:07:3d:76:15:bc:96:da:77:03:3c:78:42:ff:09:
         fe:49:17:4f:45:c3:18:75:3a:e5:bd:6b:36:17:ae:d0:94:cf:
         73:7e:bf:a6:af:24:69:f6:f5:33:b7:61:b5:5b:c0:d5:97:f2:
         49:be:65:b7:d0:28:af:04:52:a8:ca:3c:ba:7f:15:5f:22:fe:
         79:5a:b2:0e:f3:ae:58:6e:9c:8b:07:6c:60:88:0e:4b:89:21:
         94:67:98:17:d8:e8:a1:d7:6b:32:d8:ad:b8:1a:13:42:7b:04:
         90:ad:a7:f1:c5:f8:32:22:4d:66:3d:7d:bd:fb:0b:eb:de:ff:
         62:f7:04:b1:c8:d4:84:a2:19:6a:e6:23:89:50:3c:9f:be:48:
         0b:c1:2e:85:9d:c7:94:52:a5:56:78:c9:a6:fc:f5:1d:12:00:
         be:5e:a3:ae:85:8a:80:92:50:10:ea:9b:bd:4f:4f:b3:9c:ab:
         f1:0e:05:9e:2d:61:53:d0:ed:bd:04:45:aa:73:5c:6f:05:a2:
         34:14:d7:fb:c5:23:5d:eb:5b:f0:82:30:27:12:61:9c:8d:6a:
         12:bc:95:fa:ee:72:2a:16:c4:f0:05:3a:ef:ab:b9:c0:b9:7a:
         1a:80:56:a2:e6:88:8c:73:20:f7:15:6f:7a:54:70:d9:39:28:
         35:df:85:0d:04:5c:3b:25:af:c5:7c:18:44:ee:83:42:af:24:
         28:1a:dc:47:e7:b5:a4:80
-----BEGIN CERTIFICATE-----
MIIFmTCCA4GgAwIBAgICEAAwDQYJKoZIhvcNAQELBQAwWDELMAkGA1UEBhMCU0Ux
DTALBgNVBAgMBFJvb3QxDTALBgNVBAcMBFJvb3QxDTALBgNVBAoMBFJvb3QxDTAL
BgNVBAsMBFJvb3QxDTALBgNVBAMMBFJvb3QwHhcNMTgxMDA4MDgyMDIxWhcNMjgx
MDA1MDgyMDIxWjBiMQswCQYDVQQGEwJTRTEPMA0GA1UECAwGRXZpbENBMQ8wDQYD
VQQHDAZFdmlsQ0ExDzANBgNVBAoMBkV2aWxDQTEPMA0GA1UECwwGRXZpbENBMQ8w
DQYDVQQDDAZFdmlsQ0EwggIiMA0GCSqGSIb3DQEBAQUAA4ICDwAwggIKAoICAQDM
tfF0FP1tKRdc1zzxupOniSZxYakS3HQ9112obdAB/o+RrfdFpioZ7rqCcxoftk70
460VDgOP9OVuWhSsSBooyJmfZbR94T3a7EXBGLHgnqw+E8KAR8dBJiRxyFzBy93K
nSvgCfDLcLT3kSBDTvtqNLc+0bq/B3mmeJZcNkmAJSAhTZdeQBHAssh9aE8c2wf0
viSZS0iQEfGwfnUFBgl7b7oh3QbnRA5MIQJA4E/lN0gxcamDfILN8hZnJDj9TxRi
AX/DWcraOYNDBcctNlUXc54+Ei4HLCaPK67TjT0sv01FnSTPdFEuEomcua3KienO
nddJFmcJybTQOXzHzifr0/XjvjPPfb9KciBjoe+5bu5MTj39TfdzBm+tcu+jKb4r
jvFpFYEuQNsHrp0bmC4Xsg3KRb1X7NmDejLT1nRxx2IW+d9XQdFcyJ4i+bPO+4q2
xNuYni//GGJDCkpZy2lxhEC8pX2yI2tSB9ZG2pNISc9N2++b49IlPfyPpj4XuEbQ
gtILAIyK/c1qKTsF+mrRmeZr6vzrggDmMASZ/FTf7VwkXk5bTRzPExNmVAVuV0Xy
663ltut3m4mdIGkTPFP8KOr1n0Tgd4FbdQCSCYnGM7vjNSDb4AONA7ioHpc32mzQ
jset2XH7a6+Thp+V22/5SpC85XwCAEGIuntdNE3WHQIDAQABo2MwYTAdBgNVHQ4E
FgQUtrR1Zhi10k9XEFOTT81RcaQnhHwwHwYDVR0jBBgwFoAUSTlygng56GCtF3mD
22W4XOanhLUwCwYDVR0PBAQDAgEGMBIGA1UdEwEB/wQIMAYBAf8CAQAwDQYJKoZI
hvcNAQELBQADggIBAJzOUkHb6n4zrAaazB07hw+9AiaAfJfVIaTxk7BBW22Xkake
VFyq0aR1Bbz5vGCNTkeC3WgIvvnTq4tgvWCr/70J1/L4abn5y09+VThc+kT/Sr1z
xvhS3jgPF7sdZv45QO4FxOwbGo11BeQCgkx1ty2WMuxkL/tigZT+yHSvAZd0UjQG
7V/i6LtLXmGPIZd9en/DyGhm2GHnzwToQ+7tVbtcv/igI0GlRCdFhkuyrYWDqhdD
TUy3MXRDAtrtJqAnzgvSCueQcX5JuNTUrIhzFszk8/JxnS3bll4p0r/7BQ/ZgVJk
k9gGx6FAXFcoXEgHPXYVvJbadwM8eEL/Cf5JF09Fwxh1OuW9azYXrtCUz3N+v6av
JGn29TO3YbVbwNWX8km+ZbfQKK8EUqjKPLp/FV8i/nlasg7zrlhunIsHbGCIDkuJ
IZRnmBfY6KHXazLYrbgaE0J7BJCtp/HF+DIiTWY9fb37C+ve/2L3BLHI1ISiGWrm
I4lQPJ++SAvBLoWdx5RSpVZ4yab89R0SAL5eo66FioCSUBDqm71PT7Ocq/EOBZ4t
YVPQ7b0ERapzXG8FojQU1/vFI13rW/CCMCcSYZyNahK8lfrucioWxPAFOu+rucC5
ehqAVqLmiIxzIPcVb3pUcNk5KDXfhQ0EXDslr8V8GETug0KvJCga3EfntaSA
-----END CERTIFICATE-----
